; ModuleID = '19-DragonWell8Easy.cpp'
source_filename = "19-DragonWell8Easy.cpp"
target datalayout = "e-m:e-i64:64-f80:128-n8:16:32:64-S128"
target triple = "x86_64-unknown-linux-gnu"

%"class.std::ios_base::Init" = type { i8 }
%struct.PackageEntryTable = type { [10 x %struct.PackageEntry*], %union.pthread_mutex_t }
%struct.PackageEntry = type { i8*, %struct.PackageEntry* }
%union.pthread_mutex_t = type { %struct.__pthread_mutex_s }
%struct.__pthread_mutex_s = type { i32, i32, i32, i32, i32, i16, i16, %struct.__pthread_internal_list }
%struct.__pthread_internal_list = type { %struct.__pthread_internal_list*, %struct.__pthread_internal_list* }
%union.pthread_attr_t = type { i64, [48 x i8] }

$_ZN17PackageEntryTableC2Ev = comdat any

@_ZStL8__ioinit = internal global %"class.std::ios_base::Init" zeroinitializer, align 1, !dbg !0
@__dso_handle = external global i8
@globalPackageTable = global %struct.PackageEntryTable* null, align 8, !dbg !29
@globalTableLock = global %union.pthread_mutex_t zeroinitializer, align 8, !dbg !50
@.str = private unnamed_addr constant [61 x i8] c"Thread %ld has accessed the PackageEntryTable at address %p\0A\00", align 1
@.str.1 = private unnamed_addr constant [24 x i8] c"Failed to create thread\00", align 1
@llvm.global_ctors = appending global [1 x { i32, void ()*, i8* }] [{ i32, void ()*, i8* } { i32 65535, void ()* @_GLOBAL__sub_I_19_DragonWell8Easy.cpp, i8* null }]

; Function Attrs: noinline uwtable
define internal void @__cxx_global_var_init() #0 section ".text.startup" !dbg !1020 {
  call void @_ZNSt8ios_base4InitC1Ev(%"class.std::ios_base::Init"* @_ZStL8__ioinit), !dbg !1022
  %1 = call i32 @__cxa_atexit(void (i8*)* bitcast (void (%"class.std::ios_base::Init"*)* @_ZNSt8ios_base4InitD1Ev to void (i8*)*), i8* getelementptr inbounds (%"class.std::ios_base::Init", %"class.std::ios_base::Init"* @_ZStL8__ioinit, i32 0, i32 0), i8* @__dso_handle) #3, !dbg !1023
  ret void, !dbg !1022
}

declare void @_ZNSt8ios_base4InitC1Ev(%"class.std::ios_base::Init"*) unnamed_addr #1

; Function Attrs: nounwind
declare void @_ZNSt8ios_base4InitD1Ev(%"class.std::ios_base::Init"*) unnamed_addr #2

; Function Attrs: nounwind
declare i32 @__cxa_atexit(void (i8*)*, i8*, i8*) #3

; Function Attrs: noinline uwtable
define %struct.PackageEntryTable* @_Z28getOrCreatePackageEntryTablev() #0 personality i8* bitcast (i32 (...)* @__gxx_personality_v0 to i8*) !dbg !1025 {
  %1 = alloca i8*
  %2 = alloca i32
  %3 = load %struct.PackageEntryTable*, %struct.PackageEntryTable** @globalPackageTable, align 8, !dbg !1028
  %4 = icmp eq %struct.PackageEntryTable* %3, null, !dbg !1030
  br i1 %4, label %5, label %19, !dbg !1031

; <label>:5:                                      ; preds = %0
  %6 = call i32 @pthread_mutex_lock(%union.pthread_mutex_t* @globalTableLock) #3, !dbg !1032
  %7 = load %struct.PackageEntryTable*, %struct.PackageEntryTable** @globalPackageTable, align 8, !dbg !1034
  %8 = icmp eq %struct.PackageEntryTable* %7, null, !dbg !1036
  br i1 %8, label %9, label %17, !dbg !1037

; <label>:9:                                      ; preds = %5
  %10 = call i8* @_Znwm(i64 120) #10, !dbg !1038
  %11 = bitcast i8* %10 to %struct.PackageEntryTable*, !dbg !1038
  invoke void @_ZN17PackageEntryTableC2Ev(%struct.PackageEntryTable* %11)
          to label %12 unwind label %13, !dbg !1040

; <label>:12:                                     ; preds = %9
  store %struct.PackageEntryTable* %11, %struct.PackageEntryTable** @globalPackageTable, align 8, !dbg !1041
  br label %17, !dbg !1043

; <label>:13:                                     ; preds = %9
  %14 = landingpad { i8*, i32 }
          cleanup, !dbg !1044
  %15 = extractvalue { i8*, i32 } %14, 0, !dbg !1044
  store i8* %15, i8** %1, align 8, !dbg !1044
  %16 = extractvalue { i8*, i32 } %14, 1, !dbg !1044
  store i32 %16, i32* %2, align 4, !dbg !1044
  call void @_ZdlPv(i8* %10) #11, !dbg !1045
  br label %21, !dbg !1045

; <label>:17:                                     ; preds = %12, %5
  %18 = call i32 @pthread_mutex_unlock(%union.pthread_mutex_t* @globalTableLock) #3, !dbg !1047
  br label %19, !dbg !1048

; <label>:19:                                     ; preds = %17, %0
  %20 = load %struct.PackageEntryTable*, %struct.PackageEntryTable** @globalPackageTable, align 8, !dbg !1049
  ret %struct.PackageEntryTable* %20, !dbg !1050

; <label>:21:                                     ; preds = %13
  %22 = load i8*, i8** %1, align 8, !dbg !1051
  %23 = load i32, i32* %2, align 4, !dbg !1051
  %24 = insertvalue { i8*, i32 } undef, i8* %22, 0, !dbg !1051
  %25 = insertvalue { i8*, i32 } %24, i32 %23, 1, !dbg !1051
  resume { i8*, i32 } %25, !dbg !1051
}

; Function Attrs: nounwind
declare i32 @pthread_mutex_lock(%union.pthread_mutex_t*) #2

; Function Attrs: nobuiltin
declare noalias i8* @_Znwm(i64) #4

; Function Attrs: noinline nounwind uwtable
define linkonce_odr void @_ZN17PackageEntryTableC2Ev(%struct.PackageEntryTable*) unnamed_addr #5 comdat align 2 !dbg !1053 {
  %2 = alloca %struct.PackageEntryTable*, align 8
  %3 = alloca i32, align 4
  store %struct.PackageEntryTable* %0, %struct.PackageEntryTable** %2, align 8
  call void @llvm.dbg.declare(metadata %struct.PackageEntryTable** %2, metadata !1054, metadata !1055), !dbg !1056
  %4 = load %struct.PackageEntryTable*, %struct.PackageEntryTable** %2, align 8
  %5 = getelementptr inbounds %struct.PackageEntryTable, %struct.PackageEntryTable* %4, i32 0, i32 0, !dbg !1057
  %6 = getelementptr inbounds [10 x %struct.PackageEntry*], [10 x %struct.PackageEntry*]* %5, i64 0, i64 0, !dbg !1058
  %7 = getelementptr inbounds %struct.PackageEntry*, %struct.PackageEntry** %6, i64 10, !dbg !1058
  br label %8, !dbg !1058

; <label>:8:                                      ; preds = %8, %1
  %9 = phi %struct.PackageEntry** [ %6, %1 ], [ %10, %8 ], !dbg !1059
  store %struct.PackageEntry* null, %struct.PackageEntry** %9, align 8, !dbg !1059
  %10 = getelementptr inbounds %struct.PackageEntry*, %struct.PackageEntry** %9, i64 1, !dbg !1059
  %11 = icmp eq %struct.PackageEntry** %10, %7, !dbg !1059
  br i1 %11, label %12, label %8, !dbg !1059

; <label>:12:                                     ; preds = %8
  %13 = getelementptr inbounds %struct.PackageEntryTable, %struct.PackageEntryTable* %4, i32 0, i32 1, !dbg !1061
  %14 = bitcast %union.pthread_mutex_t* %13 to %struct.__pthread_mutex_s*, !dbg !1062
  %15 = getelementptr inbounds %struct.__pthread_mutex_s, %struct.__pthread_mutex_s* %14, i32 0, i32 0, !dbg !1062
  store i32 0, i32* %15, align 8, !dbg !1062
  %16 = getelementptr inbounds %struct.__pthread_mutex_s, %struct.__pthread_mutex_s* %14, i32 0, i32 1, !dbg !1062
  store i32 0, i32* %16, align 4, !dbg !1062
  %17 = getelementptr inbounds %struct.__pthread_mutex_s, %struct.__pthread_mutex_s* %14, i32 0, i32 2, !dbg !1062
  store i32 0, i32* %17, align 8, !dbg !1062
  %18 = getelementptr inbounds %struct.__pthread_mutex_s, %struct.__pthread_mutex_s* %14, i32 0, i32 3, !dbg !1062
  store i32 0, i32* %18, align 4, !dbg !1062
  %19 = getelementptr inbounds %struct.__pthread_mutex_s, %struct.__pthread_mutex_s* %14, i32 0, i32 4, !dbg !1062
  store i32 0, i32* %19, align 8, !dbg !1062
  %20 = getelementptr inbounds %struct.__pthread_mutex_s, %struct.__pthread_mutex_s* %14, i32 0, i32 5, !dbg !1062
  store i16 0, i16* %20, align 4, !dbg !1062
  %21 = getelementptr inbounds %struct.__pthread_mutex_s, %struct.__pthread_mutex_s* %14, i32 0, i32 6, !dbg !1062
  store i16 0, i16* %21, align 2, !dbg !1062
  %22 = getelementptr inbounds %struct.__pthread_mutex_s, %struct.__pthread_mutex_s* %14, i32 0, i32 7, !dbg !1062
  %23 = getelementptr inbounds %struct.__pthread_internal_list, %struct.__pthread_internal_list* %22, i32 0, i32 0, !dbg !1062
  store %struct.__pthread_internal_list* null, %struct.__pthread_internal_list** %23, align 8, !dbg !1062
  %24 = getelementptr inbounds %struct.__pthread_internal_list, %struct.__pthread_internal_list* %22, i32 0, i32 1, !dbg !1062
  store %struct.__pthread_internal_list* null, %struct.__pthread_internal_list** %24, align 8, !dbg !1062
  call void @llvm.dbg.declare(metadata i32* %3, metadata !1063, metadata !1055), !dbg !1066
  store i32 0, i32* %3, align 4, !dbg !1066
  br label %25, !dbg !1067

; <label>:25:                                     ; preds = %33, %12
  %26 = load i32, i32* %3, align 4, !dbg !1068
  %27 = icmp slt i32 %26, 10, !dbg !1071
  br i1 %27, label %28, label %36, !dbg !1072

; <label>:28:                                     ; preds = %25
  %29 = getelementptr inbounds %struct.PackageEntryTable, %struct.PackageEntryTable* %4, i32 0, i32 0, !dbg !1074
  %30 = load i32, i32* %3, align 4, !dbg !1076
  %31 = sext i32 %30 to i64, !dbg !1074
  %32 = getelementptr inbounds [10 x %struct.PackageEntry*], [10 x %struct.PackageEntry*]* %29, i64 0, i64 %31, !dbg !1074
  store %struct.PackageEntry* null, %struct.PackageEntry** %32, align 8, !dbg !1077
  br label %33, !dbg !1078

; <label>:33:                                     ; preds = %28
  %34 = load i32, i32* %3, align 4, !dbg !1079
  %35 = add nsw i32 %34, 1, !dbg !1079
  store i32 %35, i32* %3, align 4, !dbg !1079
  br label %25, !dbg !1081, !llvm.loop !1082

; <label>:36:                                     ; preds = %25
  ret void, !dbg !1085
}

declare i32 @__gxx_personality_v0(...)

; Function Attrs: nobuiltin nounwind
declare void @_ZdlPv(i8*) #6

; Function Attrs: nounwind
declare i32 @pthread_mutex_unlock(%union.pthread_mutex_t*) #2

; Function Attrs: noinline uwtable
define i8* @_Z13threadRoutinePv(i8*) #0 !dbg !1086 {
  %2 = alloca i8*, align 8
  %3 = alloca %struct.PackageEntryTable*, align 8
  store i8* %0, i8** %2, align 8
  call void @llvm.dbg.declare(metadata i8** %2, metadata !1089, metadata !1055), !dbg !1090
  call void @llvm.dbg.declare(metadata %struct.PackageEntryTable** %3, metadata !1091, metadata !1055), !dbg !1092
  %4 = call %struct.PackageEntryTable* @_Z28getOrCreatePackageEntryTablev(), !dbg !1093
  store %struct.PackageEntryTable* %4, %struct.PackageEntryTable** %3, align 8, !dbg !1092
  %5 = call i64 @pthread_self() #7, !dbg !1094
  %6 = load %struct.PackageEntryTable*, %struct.PackageEntryTable** %3, align 8, !dbg !1095
  %7 = bitcast %struct.PackageEntryTable* %6 to i8*, !dbg !1095
  %8 = call i32 (i8*, ...) @printf(i8* getelementptr inbounds ([61 x i8], [61 x i8]* @.str, i32 0, i32 0), i64 %5, i8* %7), !dbg !1096
  ret i8* null, !dbg !1098
}

; Function Attrs: nounwind readnone
declare void @llvm.dbg.declare(metadata, metadata, metadata) #7

declare i32 @printf(i8*, ...) #1

; Function Attrs: nounwind readnone
declare i64 @pthread_self() #8

; Function Attrs: noinline norecurse uwtable
define i32 @main() #9 !dbg !1099 {
  %1 = alloca i32, align 4
  %2 = alloca i32, align 4
  %3 = alloca [5 x i64], align 16
  %4 = alloca [5 x i64]*, align 8
  %5 = alloca i64*, align 8
  %6 = alloca i64*, align 8
  %7 = alloca i64*, align 8
  %8 = alloca [5 x i64]*, align 8
  %9 = alloca i64*, align 8
  %10 = alloca i64*, align 8
  %11 = alloca i64, align 8
  store i32 0, i32* %1, align 4
  call void @llvm.dbg.declare(metadata i32* %2, metadata !1100, metadata !1055), !dbg !1102
  store i32 5, i32* %2, align 4, !dbg !1102
  call void @llvm.dbg.declare(metadata [5 x i64]* %3, metadata !1103, metadata !1055), !dbg !1108
  call void @llvm.dbg.declare(metadata [5 x i64]** %4, metadata !1109, metadata !1055), !dbg !1113
  store [5 x i64]* %3, [5 x i64]** %4, align 8, !dbg !1114
  call void @llvm.dbg.declare(metadata i64** %5, metadata !1115, metadata !1055), !dbg !1113
  %12 = load [5 x i64]*, [5 x i64]** %4, align 8, !dbg !1117
  %13 = getelementptr inbounds [5 x i64], [5 x i64]* %12, i32 0, i32 0, !dbg !1117
  store i64* %13, i64** %5, align 8, !dbg !1117
  call void @llvm.dbg.declare(metadata i64** %6, metadata !1118, metadata !1055), !dbg !1113
  %14 = load [5 x i64]*, [5 x i64]** %4, align 8, !dbg !1117
  %15 = getelementptr inbounds [5 x i64], [5 x i64]* %14, i32 0, i32 0, !dbg !1117
  %16 = getelementptr inbounds i64, i64* %15, i64 5, !dbg !1117
  store i64* %16, i64** %6, align 8, !dbg !1117
  br label %17, !dbg !1117

; <label>:17:                                     ; preds = %28, %0
  %18 = load i64*, i64** %5, align 8, !dbg !1119
  %19 = load i64*, i64** %6, align 8, !dbg !1119
  %20 = icmp ne i64* %18, %19, !dbg !1119
  br i1 %20, label %21, label %31, !dbg !1119

; <label>:21:                                     ; preds = %17
  call void @llvm.dbg.declare(metadata i64** %7, metadata !1121, metadata !1055), !dbg !1124
  %22 = load i64*, i64** %5, align 8, !dbg !1125
  store i64* %22, i64** %7, align 8, !dbg !1127
  %23 = load i64*, i64** %7, align 8, !dbg !1128
  %24 = call i32 @pthread_create(i64* %23, %union.pthread_attr_t* null, i8* (i8*)* @_Z13threadRoutinePv, i8* null) #3, !dbg !1131
  %25 = icmp ne i32 %24, 0, !dbg !1132
  br i1 %25, label %26, label %27, !dbg !1133

; <label>:26:                                     ; preds = %21
  call void @perror(i8* getelementptr inbounds ([24 x i8], [24 x i8]* @.str.1, i32 0, i32 0)), !dbg !1134
  store i32 1, i32* %1, align 4, !dbg !1136
  br label %49, !dbg !1136

; <label>:27:                                     ; preds = %21
  br label %28, !dbg !1137

; <label>:28:                                     ; preds = %27
  %29 = load i64*, i64** %5, align 8, !dbg !1139
  %30 = getelementptr inbounds i64, i64* %29, i32 1, !dbg !1139
  store i64* %30, i64** %5, align 8, !dbg !1139
  br label %17, !dbg !1139, !llvm.loop !1141

; <label>:31:                                     ; preds = %17
  call void @llvm.dbg.declare(metadata [5 x i64]** %8, metadata !1144, metadata !1055), !dbg !1146
  store [5 x i64]* %3, [5 x i64]** %8, align 8, !dbg !1147
  call void @llvm.dbg.declare(metadata i64** %9, metadata !1148, metadata !1055), !dbg !1146
  %32 = load [5 x i64]*, [5 x i64]** %8, align 8, !dbg !1149
  %33 = getelementptr inbounds [5 x i64], [5 x i64]* %32, i32 0, i32 0, !dbg !1149
  store i64* %33, i64** %9, align 8, !dbg !1149
  call void @llvm.dbg.declare(metadata i64** %10, metadata !1150, metadata !1055), !dbg !1146
  %34 = load [5 x i64]*, [5 x i64]** %8, align 8, !dbg !1149
  %35 = getelementptr inbounds [5 x i64], [5 x i64]* %34, i32 0, i32 0, !dbg !1149
  %36 = getelementptr inbounds i64, i64* %35, i64 5, !dbg !1149
  store i64* %36, i64** %10, align 8, !dbg !1149
  br label %37, !dbg !1149

; <label>:37:                                     ; preds = %46, %31
  %38 = load i64*, i64** %9, align 8, !dbg !1151
  %39 = load i64*, i64** %10, align 8, !dbg !1151
  %40 = icmp ne i64* %38, %39, !dbg !1151
  br i1 %40, label %41, label %49, !dbg !1151

; <label>:41:                                     ; preds = %37
  call void @llvm.dbg.declare(metadata i64* %11, metadata !1153, metadata !1055), !dbg !1155
  %42 = load i64*, i64** %9, align 8, !dbg !1156
  %43 = load i64, i64* %42, align 8, !dbg !1156
  store i64 %43, i64* %11, align 8, !dbg !1158
  %44 = load i64, i64* %11, align 8, !dbg !1159
  %45 = call i32 @pthread_join(i64 %44, i8** null), !dbg !1161
  br label %46, !dbg !1162

; <label>:46:                                     ; preds = %41
  %47 = load i64*, i64** %9, align 8, !dbg !1164
  %48 = getelementptr inbounds i64, i64* %47, i32 1, !dbg !1164
  store i64* %48, i64** %9, align 8, !dbg !1164
  br label %37, !dbg !1164, !llvm.loop !1166

; <label>:49:                                     ; preds = %26, %37
  %50 = load i32, i32* %1, align 4, !dbg !1169
  ret i32 %50, !dbg !1169
}

; Function Attrs: nounwind
declare i32 @pthread_create(i64*, %union.pthread_attr_t*, i8* (i8*)*, i8*) #2

declare void @perror(i8*) #1

declare i32 @pthread_join(i64, i8**) #1

; Function Attrs: noinline uwtable
define internal void @_GLOBAL__sub_I_19_DragonWell8Easy.cpp() #0 section ".text.startup" !dbg !1170 {
  call void @__cxx_global_var_init(), !dbg !1172
  ret void
}

attributes #0 = { noinline uwtable "correctly-rounded-divide-sqrt-fp-math"="false" "disable-tail-calls"="false" "less-precise-fpmad"="false" "no-frame-pointer-elim"="true" "no-frame-pointer-elim-non-leaf" "no-infs-fp-math"="false" "no-jump-tables"="false" "no-nans-fp-math"="false" "no-signed-zeros-fp-math"="false" "no-trapping-math"="false" "stack-protector-buffer-size"="8" "target-cpu"="x86-64" "target-features"="+fxsr,+mmx,+sse,+sse2,+x87" "unsafe-fp-math"="false" "use-soft-float"="false" }
attributes #1 = { "correctly-rounded-divide-sqrt-fp-math"="false" "disable-tail-calls"="false" "less-precise-fpmad"="false" "no-frame-pointer-elim"="true" "no-frame-pointer-elim-non-leaf" "no-infs-fp-math"="false" "no-nans-fp-math"="false" "no-signed-zeros-fp-math"="false" "no-trapping-math"="false" "stack-protector-buffer-size"="8" "target-cpu"="x86-64" "target-features"="+fxsr,+mmx,+sse,+sse2,+x87" "unsafe-fp-math"="false" "use-soft-float"="false" }
attributes #2 = { nounwind "correctly-rounded-divide-sqrt-fp-math"="false" "disable-tail-calls"="false" "less-precise-fpmad"="false" "no-frame-pointer-elim"="true" "no-frame-pointer-elim-non-leaf" "no-infs-fp-math"="false" "no-nans-fp-math"="false" "no-signed-zeros-fp-math"="false" "no-trapping-math"="false" "stack-protector-buffer-size"="8" "target-cpu"="x86-64" "target-features"="+fxsr,+mmx,+sse,+sse2,+x87" "unsafe-fp-math"="false" "use-soft-float"="false" }
attributes #3 = { nounwind }
attributes #4 = { nobuiltin "correctly-rounded-divide-sqrt-fp-math"="false" "disable-tail-calls"="false" "less-precise-fpmad"="false" "no-frame-pointer-elim"="true" "no-frame-pointer-elim-non-leaf" "no-infs-fp-math"="false" "no-nans-fp-math"="false" "no-signed-zeros-fp-math"="false" "no-trapping-math"="false" "stack-protector-buffer-size"="8" "target-cpu"="x86-64" "target-features"="+fxsr,+mmx,+sse,+sse2,+x87" "unsafe-fp-math"="false" "use-soft-float"="false" }
attributes #5 = { noinline nounwind uwtable "correctly-rounded-divide-sqrt-fp-math"="false" "disable-tail-calls"="false" "less-precise-fpmad"="false" "no-frame-pointer-elim"="true" "no-frame-pointer-elim-non-leaf" "no-infs-fp-math"="false" "no-jump-tables"="false" "no-nans-fp-math"="false" "no-signed-zeros-fp-math"="false" "no-trapping-math"="false" "stack-protector-buffer-size"="8" "target-cpu"="x86-64" "target-features"="+fxsr,+mmx,+sse,+sse2,+x87" "unsafe-fp-math"="false" "use-soft-float"="false" }
attributes #6 = { nobuiltin nounwind "correctly-rounded-divide-sqrt-fp-math"="false" "disable-tail-calls"="false" "less-precise-fpmad"="false" "no-frame-pointer-elim"="true" "no-frame-pointer-elim-non-leaf" "no-infs-fp-math"="false" "no-nans-fp-math"="false" "no-signed-zeros-fp-math"="false" "no-trapping-math"="false" "stack-protector-buffer-size"="8" "target-cpu"="x86-64" "target-features"="+fxsr,+mmx,+sse,+sse2,+x87" "unsafe-fp-math"="false" "use-soft-float"="false" }
attributes #7 = { nounwind readnone }
attributes #8 = { nounwind readnone "correctly-rounded-divide-sqrt-fp-math"="false" "disable-tail-calls"="false" "less-precise-fpmad"="false" "no-frame-pointer-elim"="true" "no-frame-pointer-elim-non-leaf" "no-infs-fp-math"="false" "no-nans-fp-math"="false" "no-signed-zeros-fp-math"="false" "no-trapping-math"="false" "stack-protector-buffer-size"="8" "target-cpu"="x86-64" "target-features"="+fxsr,+mmx,+sse,+sse2,+x87" "unsafe-fp-math"="false" "use-soft-float"="false" }
attributes #9 = { noinline norecurse uwtable "correctly-rounded-divide-sqrt-fp-math"="false" "disable-tail-calls"="false" "less-precise-fpmad"="false" "no-frame-pointer-elim"="true" "no-frame-pointer-elim-non-leaf" "no-infs-fp-math"="false" "no-jump-tables"="false" "no-nans-fp-math"="false" "no-signed-zeros-fp-math"="false" "no-trapping-math"="false" "stack-protector-buffer-size"="8" "target-cpu"="x86-64" "target-features"="+fxsr,+mmx,+sse,+sse2,+x87" "unsafe-fp-math"="false" "use-soft-float"="false" }
attributes #10 = { builtin }
attributes #11 = { builtin nounwind }

!llvm.dbg.cu = !{!31}
!llvm.module.flags = !{!1017, !1018}
!llvm.ident = !{!1019}

!0 = !DIGlobalVariableExpression(var: !1)
!1 = distinct !DIGlobalVariable(name: "__ioinit", linkageName: "_ZStL8__ioinit", scope: !2, file: !4, line: 74, type: !5, isLocal: true, isDefinition: true)
!2 = !DINamespace(name: "std", scope: null, file: !3, line: 256)
!3 = !DIFile(filename: "/usr/lib/gcc/x86_64-linux-gnu/9/../../../../include/x86_64-linux-gnu/c++/9/bits/c++config.h", directory: "/home/nsas2020/fuzz/targetProcess/reorder")
!4 = !DIFile(filename: "/usr/lib/gcc/x86_64-linux-gnu/9/../../../../include/c++/9/iostream", directory: "/home/nsas2020/fuzz/targetProcess/reorder")
!5 = distinct !DICompositeType(tag: DW_TAG_class_type, name: "Init", scope: !7, file: !6, line: 608, size: 8, elements: !8, identifier: "_ZTSNSt8ios_base4InitE")
!6 = !DIFile(filename: "/usr/lib/gcc/x86_64-linux-gnu/9/../../../../include/c++/9/bits/ios_base.h", directory: "/home/nsas2020/fuzz/targetProcess/reorder")
!7 = !DICompositeType(tag: DW_TAG_class_type, name: "ios_base", scope: !2, file: !6, line: 228, flags: DIFlagFwdDecl, identifier: "_ZTSSt8ios_base")
!8 = !{!9, !13, !15, !19, !20, !25}
!9 = !DIDerivedType(tag: DW_TAG_member, name: "_S_refcount", scope: !5, file: !6, line: 621, baseType: !10, flags: DIFlagStaticMember)
!10 = !DIDerivedType(tag: DW_TAG_typedef, name: "_Atomic_word", file: !11, line: 32, baseType: !12)
!11 = !DIFile(filename: "/usr/lib/gcc/x86_64-linux-gnu/9/../../../../include/x86_64-linux-gnu/c++/9/bits/atomic_word.h", directory: "/home/nsas2020/fuzz/targetProcess/reorder")
!12 = !DIBasicType(name: "int", size: 32, encoding: DW_ATE_signed)
!13 = !DIDerivedType(tag: DW_TAG_member, name: "_S_synced_with_stdio", scope: !5, file: !6, line: 622, baseType: !14, flags: DIFlagStaticMember)
!14 = !DIBasicType(name: "bool", size: 8, encoding: DW_ATE_boolean)
!15 = !DISubprogram(name: "Init", scope: !5, file: !6, line: 612, type: !16, isLocal: false, isDefinition: false, scopeLine: 612, flags: DIFlagPublic | DIFlagPrototyped, isOptimized: false)
!16 = !DISubroutineType(types: !17)
!17 = !{null, !18}
!18 = !DIDerivedType(tag: DW_TAG_pointer_type, baseType: !5, size: 64, flags: DIFlagArtificial | DIFlagObjectPointer)
!19 = !DISubprogram(name: "~Init", scope: !5, file: !6, line: 613, type: !16, isLocal: false, isDefinition: false, scopeLine: 613, flags: DIFlagPublic | DIFlagPrototyped, isOptimized: false)
!20 = !DISubprogram(name: "Init", scope: !5, file: !6, line: 616, type: !21, isLocal: false, isDefinition: false, scopeLine: 616, flags: DIFlagPublic | DIFlagPrototyped, isOptimized: false)
!21 = !DISubroutineType(types: !22)
!22 = !{null, !18, !23}
!23 = !DIDerivedType(tag: DW_TAG_reference_type, baseType: !24, size: 64)
!24 = !DIDerivedType(tag: DW_TAG_const_type, baseType: !5)
!25 = !DISubprogram(name: "operator=", linkageName: "_ZNSt8ios_base4InitaSERKS0_", scope: !5, file: !6, line: 617, type: !26, isLocal: false, isDefinition: false, scopeLine: 617, flags: DIFlagPublic | DIFlagPrototyped, isOptimized: false)
!26 = !DISubroutineType(types: !27)
!27 = !{!28, !18, !23}
!28 = !DIDerivedType(tag: DW_TAG_reference_type, baseType: !5, size: 64)
!29 = !DIGlobalVariableExpression(var: !30)
!30 = distinct !DIGlobalVariable(name: "globalPackageTable", scope: !31, file: !32, line: 29, type: !1002, isLocal: false, isDefinition: true)
!31 = distinct !DICompileUnit(language: DW_LANG_C_plus_plus, file: !32, producer: "clang version 4.0.0 (tags/RELEASE_400/final)", isOptimized: false, runtimeVersion: 0, emissionKind: FullDebug, enums: !33, retainedTypes: !46, globals: !49, imports: !83)
!32 = !DIFile(filename: "19-DragonWell8Easy.cpp", directory: "/home/nsas2020/fuzz/targetProcess/reorder")
!33 = !{!34}
!34 = !DICompositeType(tag: DW_TAG_enumeration_type, file: !35, line: 43, size: 32, elements: !36)
!35 = !DIFile(filename: "/usr/include/pthread.h", directory: "/home/nsas2020/fuzz/targetProcess/reorder")
!36 = !{!37, !38, !39, !40, !41, !42, !43, !44, !45}
!37 = !DIEnumerator(name: "PTHREAD_MUTEX_TIMED_NP", value: 0)
!38 = !DIEnumerator(name: "PTHREAD_MUTEX_RECURSIVE_NP", value: 1)
!39 = !DIEnumerator(name: "PTHREAD_MUTEX_ERRORCHECK_NP", value: 2)
!40 = !DIEnumerator(name: "PTHREAD_MUTEX_ADAPTIVE_NP", value: 3)
!41 = !DIEnumerator(name: "PTHREAD_MUTEX_NORMAL", value: 0)
!42 = !DIEnumerator(name: "PTHREAD_MUTEX_RECURSIVE", value: 1)
!43 = !DIEnumerator(name: "PTHREAD_MUTEX_ERRORCHECK", value: 2)
!44 = !DIEnumerator(name: "PTHREAD_MUTEX_DEFAULT", value: 0)
!45 = !DIEnumerator(name: "PTHREAD_MUTEX_FAST_NP", value: 0)
!46 = !{!47, !48}
!47 = !DIBasicType(name: "long int", size: 64, encoding: DW_ATE_signed)
!48 = !DIDerivedType(tag: DW_TAG_pointer_type, baseType: null, size: 64)
!49 = !{!0, !29, !50}
!50 = !DIGlobalVariableExpression(var: !51)
!51 = distinct !DIGlobalVariable(name: "globalTableLock", scope: !31, file: !32, line: 30, type: !52, isLocal: false, isDefinition: true)
!52 = !DIDerivedType(tag: DW_TAG_typedef, name: "pthread_mutex_t", file: !53, line: 72, baseType: !54)
!53 = !DIFile(filename: "/usr/include/x86_64-linux-gnu/bits/pthreadtypes.h", directory: "/home/nsas2020/fuzz/targetProcess/reorder")
!54 = distinct !DICompositeType(tag: DW_TAG_union_type, file: !53, line: 67, size: 320, elements: !55, identifier: "_ZTS15pthread_mutex_t")
!55 = !{!56, !77, !82}
!56 = !DIDerivedType(tag: DW_TAG_member, name: "__data", scope: !54, file: !53, line: 69, baseType: !57, size: 320)
!57 = distinct !DICompositeType(tag: DW_TAG_structure_type, name: "__pthread_mutex_s", file: !58, line: 22, size: 320, elements: !59, identifier: "_ZTS17__pthread_mutex_s")
!58 = !DIFile(filename: "/usr/include/x86_64-linux-gnu/bits/struct_mutex.h", directory: "/home/nsas2020/fuzz/targetProcess/reorder")
!59 = !{!60, !61, !63, !64, !65, !66, !68, !69}
!60 = !DIDerivedType(tag: DW_TAG_member, name: "__lock", scope: !57, file: !58, line: 24, baseType: !12, size: 32)
!61 = !DIDerivedType(tag: DW_TAG_member, name: "__count", scope: !57, file: !58, line: 25, baseType: !62, size: 32, offset: 32)
!62 = !DIBasicType(name: "unsigned int", size: 32, encoding: DW_ATE_unsigned)
!63 = !DIDerivedType(tag: DW_TAG_member, name: "__owner", scope: !57, file: !58, line: 26, baseType: !12, size: 32, offset: 64)
!64 = !DIDerivedType(tag: DW_TAG_member, name: "__nusers", scope: !57, file: !58, line: 28, baseType: !62, size: 32, offset: 96)
!65 = !DIDerivedType(tag: DW_TAG_member, name: "__kind", scope: !57, file: !58, line: 32, baseType: !12, size: 32, offset: 128)
!66 = !DIDerivedType(tag: DW_TAG_member, name: "__spins", scope: !57, file: !58, line: 34, baseType: !67, size: 16, offset: 160)
!67 = !DIBasicType(name: "short", size: 16, encoding: DW_ATE_signed)
!68 = !DIDerivedType(tag: DW_TAG_member, name: "__elision", scope: !57, file: !58, line: 35, baseType: !67, size: 16, offset: 176)
!69 = !DIDerivedType(tag: DW_TAG_member, name: "__list", scope: !57, file: !58, line: 36, baseType: !70, size: 128, offset: 192)
!70 = !DIDerivedType(tag: DW_TAG_typedef, name: "__pthread_list_t", file: !71, line: 53, baseType: !72)
!71 = !DIFile(filename: "/usr/include/x86_64-linux-gnu/bits/thread-shared-types.h", directory: "/home/nsas2020/fuzz/targetProcess/reorder")
!72 = distinct !DICompositeType(tag: DW_TAG_structure_type, name: "__pthread_internal_list", file: !71, line: 49, size: 128, elements: !73, identifier: "_ZTS23__pthread_internal_list")
!73 = !{!74, !76}
!74 = !DIDerivedType(tag: DW_TAG_member, name: "__prev", scope: !72, file: !71, line: 51, baseType: !75, size: 64)
!75 = !DIDerivedType(tag: DW_TAG_pointer_type, baseType: !72, size: 64)
!76 = !DIDerivedType(tag: DW_TAG_member, name: "__next", scope: !72, file: !71, line: 52, baseType: !75, size: 64, offset: 64)
!77 = !DIDerivedType(tag: DW_TAG_member, name: "__size", scope: !54, file: !53, line: 70, baseType: !78, size: 320)
!78 = !DICompositeType(tag: DW_TAG_array_type, baseType: !79, size: 320, elements: !80)
!79 = !DIBasicType(name: "char", size: 8, encoding: DW_ATE_signed_char)
!80 = !{!81}
!81 = !DISubrange(count: 40)
!82 = !DIDerivedType(tag: DW_TAG_member, name: "__align", scope: !54, file: !53, line: 71, baseType: !47, size: 64)
!83 = !{!84, !89, !92, !98, !102, !107, !109, !116, !120, !124, !137, !141, !145, !149, !153, !158, !162, !166, !170, !174, !182, !186, !190, !192, !196, !200, !204, !210, !214, !218, !220, !228, !232, !240, !242, !246, !250, !254, !258, !263, !268, !273, !274, !275, !276, !279, !280, !281, !282, !283, !284, !285, !286, !287, !288, !289, !290, !291, !292, !297, !298, !299, !300, !301, !302, !303, !304, !305, !306, !307, !308, !309, !310, !311, !312, !313, !314, !315, !316, !317, !318, !319, !320, !321, !337, !340, !345, !354, !359, !363, !367, !371, !375, !377, !379, !383, !389, !393, !399, !405, !407, !411, !415, !419, !423, !434, !436, !440, !444, !448, !450, !454, !458, !462, !464, !466, !470, !479, !483, !487, !491, !493, !499, !501, !507, !511, !515, !519, !523, !527, !531, !533, !535, !539, !543, !547, !549, !553, !557, !559, !561, !565, !569, !573, !577, !578, !579, !580, !581, !582, !583, !584, !585, !586, !587, !641, !645, !649, !655, !658, !661, !664, !667, !669, !671, !673, !676, !679, !682, !685, !688, !690, !695, !699, !702, !705, !707, !709, !711, !713, !716, !719, !722, !725, !728, !730, !733, !737, !742, !745, !747, !749, !751, !753, !755, !757, !759, !761, !763, !765, !767, !769, !771, !773, !775, !778, !784, !789, !793, !795, !797, !799, !801, !808, !812, !816, !820, !824, !828, !833, !837, !839, !843, !849, !853, !858, !860, !862, !866, !870, !874, !876, !878, !880, !882, !886, !888, !890, !894, !898, !902, !906, !910, !912, !914, !918, !922, !926, !930, !932, !934, !938, !942, !943, !944, !945, !946, !947, !952, !955, !956, !958, !960, !962, !964, !968, !970, !972, !974, !976, !978, !980, !982, !984, !988, !992, !994, !998}
!84 = !DIImportedEntity(tag: DW_TAG_imported_declaration, scope: !2, entity: !85, line: 52)
!85 = !DISubprogram(name: "abs", scope: !86, file: !86, line: 840, type: !87, isLocal: false, isDefinition: false, flags: DIFlagPrototyped, isOptimized: false)
!86 = !DIFile(filename: "/usr/include/stdlib.h", directory: "/home/nsas2020/fuzz/targetProcess/reorder")
!87 = !DISubroutineType(types: !88)
!88 = !{!12, !12}
!89 = !DIImportedEntity(tag: DW_TAG_imported_declaration, scope: !2, entity: !90, line: 127)
!90 = !DIDerivedType(tag: DW_TAG_typedef, name: "div_t", file: !86, line: 62, baseType: !91)
!91 = !DICompositeType(tag: DW_TAG_structure_type, file: !86, line: 58, flags: DIFlagFwdDecl, identifier: "_ZTS5div_t")
!92 = !DIImportedEntity(tag: DW_TAG_imported_declaration, scope: !2, entity: !93, line: 128)
!93 = !DIDerivedType(tag: DW_TAG_typedef, name: "ldiv_t", file: !86, line: 70, baseType: !94)
!94 = distinct !DICompositeType(tag: DW_TAG_structure_type, file: !86, line: 66, size: 128, elements: !95, identifier: "_ZTS6ldiv_t")
!95 = !{!96, !97}
!96 = !DIDerivedType(tag: DW_TAG_member, name: "quot", scope: !94, file: !86, line: 68, baseType: !47, size: 64)
!97 = !DIDerivedType(tag: DW_TAG_member, name: "rem", scope: !94, file: !86, line: 69, baseType: !47, size: 64, offset: 64)
!98 = !DIImportedEntity(tag: DW_TAG_imported_declaration, scope: !2, entity: !99, line: 130)
!99 = !DISubprogram(name: "abort", scope: !86, file: !86, line: 591, type: !100, isLocal: false, isDefinition: false, flags: DIFlagPrototyped | DIFlagNoReturn, isOptimized: false)
!100 = !DISubroutineType(types: !101)
!101 = !{null}
!102 = !DIImportedEntity(tag: DW_TAG_imported_declaration, scope: !2, entity: !103, line: 134)
!103 = !DISubprogram(name: "atexit", scope: !86, file: !86, line: 595, type: !104, isLocal: false, isDefinition: false, flags: DIFlagPrototyped, isOptimized: false)
!104 = !DISubroutineType(types: !105)
!105 = !{!12, !106}
!106 = !DIDerivedType(tag: DW_TAG_pointer_type, baseType: !100, size: 64)
!107 = !DIImportedEntity(tag: DW_TAG_imported_declaration, scope: !2, entity: !108, line: 137)
!108 = !DISubprogram(name: "at_quick_exit", scope: !86, file: !86, line: 600, type: !104, isLocal: false, isDefinition: false, flags: DIFlagPrototyped, isOptimized: false)
!109 = !DIImportedEntity(tag: DW_TAG_imported_declaration, scope: !2, entity: !110, line: 140)
!110 = !DISubprogram(name: "atof", scope: !86, file: !86, line: 101, type: !111, isLocal: false, isDefinition: false, flags: DIFlagPrototyped, isOptimized: false)
!111 = !DISubroutineType(types: !112)
!112 = !{!113, !114}
!113 = !DIBasicType(name: "double", size: 64, encoding: DW_ATE_float)
!114 = !DIDerivedType(tag: DW_TAG_pointer_type, baseType: !115, size: 64)
!115 = !DIDerivedType(tag: DW_TAG_const_type, baseType: !79)
!116 = !DIImportedEntity(tag: DW_TAG_imported_declaration, scope: !2, entity: !117, line: 141)
!117 = !DISubprogram(name: "atoi", scope: !86, file: !86, line: 104, type: !118, isLocal: false, isDefinition: false, flags: DIFlagPrototyped, isOptimized: false)
!118 = !DISubroutineType(types: !119)
!119 = !{!12, !114}
!120 = !DIImportedEntity(tag: DW_TAG_imported_declaration, scope: !2, entity: !121, line: 142)
!121 = !DISubprogram(name: "atol", scope: !86, file: !86, line: 107, type: !122, isLocal: false, isDefinition: false, flags: DIFlagPrototyped, isOptimized: false)
!122 = !DISubroutineType(types: !123)
!123 = !{!47, !114}
!124 = !DIImportedEntity(tag: DW_TAG_imported_declaration, scope: !2, entity: !125, line: 143)
!125 = !DISubprogram(name: "bsearch", scope: !86, file: !86, line: 820, type: !126, isLocal: false, isDefinition: false, flags: DIFlagPrototyped, isOptimized: false)
!126 = !DISubroutineType(types: !127)
!127 = !{!48, !128, !128, !130, !130, !133}
!128 = !DIDerivedType(tag: DW_TAG_pointer_type, baseType: !129, size: 64)
!129 = !DIDerivedType(tag: DW_TAG_const_type, baseType: null)
!130 = !DIDerivedType(tag: DW_TAG_typedef, name: "size_t", file: !131, line: 62, baseType: !132)
!131 = !DIFile(filename: "/usr/local/clang-4.0/bin/../lib/clang/4.0.0/include/stddef.h", directory: "/home/nsas2020/fuzz/targetProcess/reorder")
!132 = !DIBasicType(name: "long unsigned int", size: 64, encoding: DW_ATE_unsigned)
!133 = !DIDerivedType(tag: DW_TAG_typedef, name: "__compar_fn_t", file: !86, line: 808, baseType: !134)
!134 = !DIDerivedType(tag: DW_TAG_pointer_type, baseType: !135, size: 64)
!135 = !DISubroutineType(types: !136)
!136 = !{!12, !128, !128}
!137 = !DIImportedEntity(tag: DW_TAG_imported_declaration, scope: !2, entity: !138, line: 144)
!138 = !DISubprogram(name: "calloc", scope: !86, file: !86, line: 542, type: !139, isLocal: false, isDefinition: false, flags: DIFlagPrototyped, isOptimized: false)
!139 = !DISubroutineType(types: !140)
!140 = !{!48, !130, !130}
!141 = !DIImportedEntity(tag: DW_TAG_imported_declaration, scope: !2, entity: !142, line: 145)
!142 = !DISubprogram(name: "div", scope: !86, file: !86, line: 852, type: !143, isLocal: false, isDefinition: false, flags: DIFlagPrototyped, isOptimized: false)
!143 = !DISubroutineType(types: !144)
!144 = !{!90, !12, !12}
!145 = !DIImportedEntity(tag: DW_TAG_imported_declaration, scope: !2, entity: !146, line: 146)
!146 = !DISubprogram(name: "exit", scope: !86, file: !86, line: 617, type: !147, isLocal: false, isDefinition: false, flags: DIFlagPrototyped | DIFlagNoReturn, isOptimized: false)
!147 = !DISubroutineType(types: !148)
!148 = !{null, !12}
!149 = !DIImportedEntity(tag: DW_TAG_imported_declaration, scope: !2, entity: !150, line: 147)
!150 = !DISubprogram(name: "free", scope: !86, file: !86, line: 565, type: !151, isLocal: false, isDefinition: false, flags: DIFlagPrototyped, isOptimized: false)
!151 = !DISubroutineType(types: !152)
!152 = !{null, !48}
!153 = !DIImportedEntity(tag: DW_TAG_imported_declaration, scope: !2, entity: !154, line: 148)
!154 = !DISubprogram(name: "getenv", scope: !86, file: !86, line: 634, type: !155, isLocal: false, isDefinition: false, flags: DIFlagPrototyped, isOptimized: false)
!155 = !DISubroutineType(types: !156)
!156 = !{!157, !114}
!157 = !DIDerivedType(tag: DW_TAG_pointer_type, baseType: !79, size: 64)
!158 = !DIImportedEntity(tag: DW_TAG_imported_declaration, scope: !2, entity: !159, line: 149)
!159 = !DISubprogram(name: "labs", scope: !86, file: !86, line: 841, type: !160, isLocal: false, isDefinition: false, flags: DIFlagPrototyped, isOptimized: false)
!160 = !DISubroutineType(types: !161)
!161 = !{!47, !47}
!162 = !DIImportedEntity(tag: DW_TAG_imported_declaration, scope: !2, entity: !163, line: 150)
!163 = !DISubprogram(name: "ldiv", scope: !86, file: !86, line: 854, type: !164, isLocal: false, isDefinition: false, flags: DIFlagPrototyped, isOptimized: false)
!164 = !DISubroutineType(types: !165)
!165 = !{!93, !47, !47}
!166 = !DIImportedEntity(tag: DW_TAG_imported_declaration, scope: !2, entity: !167, line: 151)
!167 = !DISubprogram(name: "malloc", scope: !86, file: !86, line: 539, type: !168, isLocal: false, isDefinition: false, flags: DIFlagPrototyped, isOptimized: false)
!168 = !DISubroutineType(types: !169)
!169 = !{!48, !130}
!170 = !DIImportedEntity(tag: DW_TAG_imported_declaration, scope: !2, entity: !171, line: 153)
!171 = !DISubprogram(name: "mblen", scope: !86, file: !86, line: 922, type: !172, isLocal: false, isDefinition: false, flags: DIFlagPrototyped, isOptimized: false)
!172 = !DISubroutineType(types: !173)
!173 = !{!12, !114, !130}
!174 = !DIImportedEntity(tag: DW_TAG_imported_declaration, scope: !2, entity: !175, line: 154)
!175 = !DISubprogram(name: "mbstowcs", scope: !86, file: !86, line: 933, type: !176, isLocal: false, isDefinition: false, flags: DIFlagPrototyped, isOptimized: false)
!176 = !DISubroutineType(types: !177)
!177 = !{!130, !178, !181, !130}
!178 = !DIDerivedType(tag: DW_TAG_restrict_type, baseType: !179)
!179 = !DIDerivedType(tag: DW_TAG_pointer_type, baseType: !180, size: 64)
!180 = !DIBasicType(name: "wchar_t", size: 32, encoding: DW_ATE_signed)
!181 = !DIDerivedType(tag: DW_TAG_restrict_type, baseType: !114)
!182 = !DIImportedEntity(tag: DW_TAG_imported_declaration, scope: !2, entity: !183, line: 155)
!183 = !DISubprogram(name: "mbtowc", scope: !86, file: !86, line: 925, type: !184, isLocal: false, isDefinition: false, flags: DIFlagPrototyped, isOptimized: false)
!184 = !DISubroutineType(types: !185)
!185 = !{!12, !178, !181, !130}
!186 = !DIImportedEntity(tag: DW_TAG_imported_declaration, scope: !2, entity: !187, line: 157)
!187 = !DISubprogram(name: "qsort", scope: !86, file: !86, line: 830, type: !188, isLocal: false, isDefinition: false, flags: DIFlagPrototyped, isOptimized: false)
!188 = !DISubroutineType(types: !189)
!189 = !{null, !48, !130, !130, !133}
!190 = !DIImportedEntity(tag: DW_TAG_imported_declaration, scope: !2, entity: !191, line: 160)
!191 = !DISubprogram(name: "quick_exit", scope: !86, file: !86, line: 623, type: !147, isLocal: false, isDefinition: false, flags: DIFlagPrototyped | DIFlagNoReturn, isOptimized: false)
!192 = !DIImportedEntity(tag: DW_TAG_imported_declaration, scope: !2, entity: !193, line: 163)
!193 = !DISubprogram(name: "rand", scope: !86, file: !86, line: 453, type: !194, isLocal: false, isDefinition: false, flags: DIFlagPrototyped, isOptimized: false)
!194 = !DISubroutineType(types: !195)
!195 = !{!12}
!196 = !DIImportedEntity(tag: DW_TAG_imported_declaration, scope: !2, entity: !197, line: 164)
!197 = !DISubprogram(name: "realloc", scope: !86, file: !86, line: 550, type: !198, isLocal: false, isDefinition: false, flags: DIFlagPrototyped, isOptimized: false)
!198 = !DISubroutineType(types: !199)
!199 = !{!48, !48, !130}
!200 = !DIImportedEntity(tag: DW_TAG_imported_declaration, scope: !2, entity: !201, line: 165)
!201 = !DISubprogram(name: "srand", scope: !86, file: !86, line: 455, type: !202, isLocal: false, isDefinition: false, flags: DIFlagPrototyped, isOptimized: false)
!202 = !DISubroutineType(types: !203)
!203 = !{null, !62}
!204 = !DIImportedEntity(tag: DW_TAG_imported_declaration, scope: !2, entity: !205, line: 166)
!205 = !DISubprogram(name: "strtod", scope: !86, file: !86, line: 117, type: !206, isLocal: false, isDefinition: false, flags: DIFlagPrototyped, isOptimized: false)
!206 = !DISubroutineType(types: !207)
!207 = !{!113, !181, !208}
!208 = !DIDerivedType(tag: DW_TAG_restrict_type, baseType: !209)
!209 = !DIDerivedType(tag: DW_TAG_pointer_type, baseType: !157, size: 64)
!210 = !DIImportedEntity(tag: DW_TAG_imported_declaration, scope: !2, entity: !211, line: 167)
!211 = !DISubprogram(name: "strtol", scope: !86, file: !86, line: 176, type: !212, isLocal: false, isDefinition: false, flags: DIFlagPrototyped, isOptimized: false)
!212 = !DISubroutineType(types: !213)
!213 = !{!47, !181, !208, !12}
!214 = !DIImportedEntity(tag: DW_TAG_imported_declaration, scope: !2, entity: !215, line: 168)
!215 = !DISubprogram(name: "strtoul", scope: !86, file: !86, line: 180, type: !216, isLocal: false, isDefinition: false, flags: DIFlagPrototyped, isOptimized: false)
!216 = !DISubroutineType(types: !217)
!217 = !{!132, !181, !208, !12}
!218 = !DIImportedEntity(tag: DW_TAG_imported_declaration, scope: !2, entity: !219, line: 169)
!219 = !DISubprogram(name: "system", scope: !86, file: !86, line: 784, type: !118, isLocal: false, isDefinition: false, flags: DIFlagPrototyped, isOptimized: false)
!220 = !DIImportedEntity(tag: DW_TAG_imported_declaration, scope: !2, entity: !221, line: 171)
!221 = !DISubprogram(name: "wcstombs", scope: !86, file: !86, line: 936, type: !222, isLocal: false, isDefinition: false, flags: DIFlagPrototyped, isOptimized: false)
!222 = !DISubroutineType(types: !223)
!223 = !{!130, !224, !225, !130}
!224 = !DIDerivedType(tag: DW_TAG_restrict_type, baseType: !157)
!225 = !DIDerivedType(tag: DW_TAG_restrict_type, baseType: !226)
!226 = !DIDerivedType(tag: DW_TAG_pointer_type, baseType: !227, size: 64)
!227 = !DIDerivedType(tag: DW_TAG_const_type, baseType: !180)
!228 = !DIImportedEntity(tag: DW_TAG_imported_declaration, scope: !2, entity: !229, line: 172)
!229 = !DISubprogram(name: "wctomb", scope: !86, file: !86, line: 929, type: !230, isLocal: false, isDefinition: false, flags: DIFlagPrototyped, isOptimized: false)
!230 = !DISubroutineType(types: !231)
!231 = !{!12, !157, !180}
!232 = !DIImportedEntity(tag: DW_TAG_imported_declaration, scope: !233, entity: !234, line: 200)
!233 = !DINamespace(name: "__gnu_cxx", scope: null, file: !3, line: 282)
!234 = !DIDerivedType(tag: DW_TAG_typedef, name: "lldiv_t", file: !86, line: 80, baseType: !235)
!235 = distinct !DICompositeType(tag: DW_TAG_structure_type, file: !86, line: 76, size: 128, elements: !236, identifier: "_ZTS7lldiv_t")
!236 = !{!237, !239}
!237 = !DIDerivedType(tag: DW_TAG_member, name: "quot", scope: !235, file: !86, line: 78, baseType: !238, size: 64)
!238 = !DIBasicType(name: "long long int", size: 64, encoding: DW_ATE_signed)
!239 = !DIDerivedType(tag: DW_TAG_member, name: "rem", scope: !235, file: !86, line: 79, baseType: !238, size: 64, offset: 64)
!240 = !DIImportedEntity(tag: DW_TAG_imported_declaration, scope: !233, entity: !241, line: 206)
!241 = !DISubprogram(name: "_Exit", scope: !86, file: !86, line: 629, type: !147, isLocal: false, isDefinition: false, flags: DIFlagPrototyped | DIFlagNoReturn, isOptimized: false)
!242 = !DIImportedEntity(tag: DW_TAG_imported_declaration, scope: !233, entity: !243, line: 210)
!243 = !DISubprogram(name: "llabs", scope: !86, file: !86, line: 844, type: !244, isLocal: false, isDefinition: false, flags: DIFlagPrototyped, isOptimized: false)
!244 = !DISubroutineType(types: !245)
!245 = !{!238, !238}
!246 = !DIImportedEntity(tag: DW_TAG_imported_declaration, scope: !233, entity: !247, line: 216)
!247 = !DISubprogram(name: "lldiv", scope: !86, file: !86, line: 858, type: !248, isLocal: false, isDefinition: false, flags: DIFlagPrototyped, isOptimized: false)
!248 = !DISubroutineType(types: !249)
!249 = !{!234, !238, !238}
!250 = !DIImportedEntity(tag: DW_TAG_imported_declaration, scope: !233, entity: !251, line: 227)
!251 = !DISubprogram(name: "atoll", scope: !86, file: !86, line: 112, type: !252, isLocal: false, isDefinition: false, flags: DIFlagPrototyped, isOptimized: false)
!252 = !DISubroutineType(types: !253)
!253 = !{!238, !114}
!254 = !DIImportedEntity(tag: DW_TAG_imported_declaration, scope: !233, entity: !255, line: 228)
!255 = !DISubprogram(name: "strtoll", scope: !86, file: !86, line: 200, type: !256, isLocal: false, isDefinition: false, flags: DIFlagPrototyped, isOptimized: false)
!256 = !DISubroutineType(types: !257)
!257 = !{!238, !181, !208, !12}
!258 = !DIImportedEntity(tag: DW_TAG_imported_declaration, scope: !233, entity: !259, line: 229)
!259 = !DISubprogram(name: "strtoull", scope: !86, file: !86, line: 205, type: !260, isLocal: false, isDefinition: false, flags: DIFlagPrototyped, isOptimized: false)
!260 = !DISubroutineType(types: !261)
!261 = !{!262, !181, !208, !12}
!262 = !DIBasicType(name: "long long unsigned int", size: 64, encoding: DW_ATE_unsigned)
!263 = !DIImportedEntity(tag: DW_TAG_imported_declaration, scope: !233, entity: !264, line: 231)
!264 = !DISubprogram(name: "strtof", scope: !86, file: !86, line: 123, type: !265, isLocal: false, isDefinition: false, flags: DIFlagPrototyped, isOptimized: false)
!265 = !DISubroutineType(types: !266)
!266 = !{!267, !181, !208}
!267 = !DIBasicType(name: "float", size: 32, encoding: DW_ATE_float)
!268 = !DIImportedEntity(tag: DW_TAG_imported_declaration, scope: !233, entity: !269, line: 232)
!269 = !DISubprogram(name: "strtold", scope: !86, file: !86, line: 126, type: !270, isLocal: false, isDefinition: false, flags: DIFlagPrototyped, isOptimized: false)
!270 = !DISubroutineType(types: !271)
!271 = !{!272, !181, !208}
!272 = !DIBasicType(name: "long double", size: 128, encoding: DW_ATE_float)
!273 = !DIImportedEntity(tag: DW_TAG_imported_declaration, scope: !2, entity: !234, line: 240)
!274 = !DIImportedEntity(tag: DW_TAG_imported_declaration, scope: !2, entity: !241, line: 242)
!275 = !DIImportedEntity(tag: DW_TAG_imported_declaration, scope: !2, entity: !243, line: 244)
!276 = !DIImportedEntity(tag: DW_TAG_imported_declaration, scope: !2, entity: !277, line: 245)
!277 = !DISubprogram(name: "div", linkageName: "_ZN9__gnu_cxx3divExx", scope: !233, file: !278, line: 213, type: !248, isLocal: false, isDefinition: false, flags: DIFlagPrototyped, isOptimized: false)
!278 = !DIFile(filename: "/usr/lib/gcc/x86_64-linux-gnu/9/../../../../include/c++/9/cstdlib", directory: "/home/nsas2020/fuzz/targetProcess/reorder")
!279 = !DIImportedEntity(tag: DW_TAG_imported_declaration, scope: !2, entity: !247, line: 246)
!280 = !DIImportedEntity(tag: DW_TAG_imported_declaration, scope: !2, entity: !251, line: 248)
!281 = !DIImportedEntity(tag: DW_TAG_imported_declaration, scope: !2, entity: !264, line: 249)
!282 = !DIImportedEntity(tag: DW_TAG_imported_declaration, scope: !2, entity: !255, line: 250)
!283 = !DIImportedEntity(tag: DW_TAG_imported_declaration, scope: !2, entity: !259, line: 251)
!284 = !DIImportedEntity(tag: DW_TAG_imported_declaration, scope: !2, entity: !269, line: 252)
!285 = !DIImportedEntity(tag: DW_TAG_imported_declaration, scope: !31, entity: !99, line: 38)
!286 = !DIImportedEntity(tag: DW_TAG_imported_declaration, scope: !31, entity: !103, line: 39)
!287 = !DIImportedEntity(tag: DW_TAG_imported_declaration, scope: !31, entity: !146, line: 40)
!288 = !DIImportedEntity(tag: DW_TAG_imported_declaration, scope: !31, entity: !108, line: 43)
!289 = !DIImportedEntity(tag: DW_TAG_imported_declaration, scope: !31, entity: !191, line: 46)
!290 = !DIImportedEntity(tag: DW_TAG_imported_declaration, scope: !31, entity: !90, line: 51)
!291 = !DIImportedEntity(tag: DW_TAG_imported_declaration, scope: !31, entity: !93, line: 52)
!292 = !DIImportedEntity(tag: DW_TAG_imported_declaration, scope: !31, entity: !293, line: 54)
!293 = !DISubprogram(name: "abs", linkageName: "_ZSt3abse", scope: !2, file: !294, line: 79, type: !295, isLocal: false, isDefinition: false, flags: DIFlagPrototyped, isOptimized: false)
!294 = !DIFile(filename: "/usr/lib/gcc/x86_64-linux-gnu/9/../../../../include/c++/9/bits/std_abs.h", directory: "/home/nsas2020/fuzz/targetProcess/reorder")
!295 = !DISubroutineType(types: !296)
!296 = !{!272, !272}
!297 = !DIImportedEntity(tag: DW_TAG_imported_declaration, scope: !31, entity: !110, line: 55)
!298 = !DIImportedEntity(tag: DW_TAG_imported_declaration, scope: !31, entity: !117, line: 56)
!299 = !DIImportedEntity(tag: DW_TAG_imported_declaration, scope: !31, entity: !121, line: 57)
!300 = !DIImportedEntity(tag: DW_TAG_imported_declaration, scope: !31, entity: !125, line: 58)
!301 = !DIImportedEntity(tag: DW_TAG_imported_declaration, scope: !31, entity: !138, line: 59)
!302 = !DIImportedEntity(tag: DW_TAG_imported_declaration, scope: !31, entity: !277, line: 60)
!303 = !DIImportedEntity(tag: DW_TAG_imported_declaration, scope: !31, entity: !150, line: 61)
!304 = !DIImportedEntity(tag: DW_TAG_imported_declaration, scope: !31, entity: !154, line: 62)
!305 = !DIImportedEntity(tag: DW_TAG_imported_declaration, scope: !31, entity: !159, line: 63)
!306 = !DIImportedEntity(tag: DW_TAG_imported_declaration, scope: !31, entity: !163, line: 64)
!307 = !DIImportedEntity(tag: DW_TAG_imported_declaration, scope: !31, entity: !167, line: 65)
!308 = !DIImportedEntity(tag: DW_TAG_imported_declaration, scope: !31, entity: !171, line: 67)
!309 = !DIImportedEntity(tag: DW_TAG_imported_declaration, scope: !31, entity: !175, line: 68)
!310 = !DIImportedEntity(tag: DW_TAG_imported_declaration, scope: !31, entity: !183, line: 69)
!311 = !DIImportedEntity(tag: DW_TAG_imported_declaration, scope: !31, entity: !187, line: 71)
!312 = !DIImportedEntity(tag: DW_TAG_imported_declaration, scope: !31, entity: !193, line: 72)
!313 = !DIImportedEntity(tag: DW_TAG_imported_declaration, scope: !31, entity: !197, line: 73)
!314 = !DIImportedEntity(tag: DW_TAG_imported_declaration, scope: !31, entity: !201, line: 74)
!315 = !DIImportedEntity(tag: DW_TAG_imported_declaration, scope: !31, entity: !205, line: 75)
!316 = !DIImportedEntity(tag: DW_TAG_imported_declaration, scope: !31, entity: !211, line: 76)
!317 = !DIImportedEntity(tag: DW_TAG_imported_declaration, scope: !31, entity: !215, line: 77)
!318 = !DIImportedEntity(tag: DW_TAG_imported_declaration, scope: !31, entity: !219, line: 78)
!319 = !DIImportedEntity(tag: DW_TAG_imported_declaration, scope: !31, entity: !221, line: 80)
!320 = !DIImportedEntity(tag: DW_TAG_imported_declaration, scope: !31, entity: !229, line: 81)
!321 = !DIImportedEntity(tag: DW_TAG_imported_declaration, scope: !2, entity: !322, line: 64)
!322 = !DIDerivedType(tag: DW_TAG_typedef, name: "mbstate_t", file: !323, line: 6, baseType: !324)
!323 = !DIFile(filename: "/usr/include/x86_64-linux-gnu/bits/types/mbstate_t.h", directory: "/home/nsas2020/fuzz/targetProcess/reorder")
!324 = !DIDerivedType(tag: DW_TAG_typedef, name: "__mbstate_t", file: !325, line: 21, baseType: !326)
!325 = !DIFile(filename: "/usr/include/x86_64-linux-gnu/bits/types/__mbstate_t.h", directory: "/home/nsas2020/fuzz/targetProcess/reorder")
!326 = distinct !DICompositeType(tag: DW_TAG_structure_type, file: !325, line: 13, size: 64, elements: !327, identifier: "_ZTS11__mbstate_t")
!327 = !{!328, !329}
!328 = !DIDerivedType(tag: DW_TAG_member, name: "__count", scope: !326, file: !325, line: 15, baseType: !12, size: 32)
!329 = !DIDerivedType(tag: DW_TAG_member, name: "__value", scope: !326, file: !325, line: 20, baseType: !330, size: 32, offset: 32)
!330 = distinct !DICompositeType(tag: DW_TAG_union_type, scope: !326, file: !325, line: 16, size: 32, elements: !331, identifier: "_ZTSN11__mbstate_tUt_E")
!331 = !{!332, !333}
!332 = !DIDerivedType(tag: DW_TAG_member, name: "__wch", scope: !330, file: !325, line: 18, baseType: !62, size: 32)
!333 = !DIDerivedType(tag: DW_TAG_member, name: "__wchb", scope: !330, file: !325, line: 19, baseType: !334, size: 32)
!334 = !DICompositeType(tag: DW_TAG_array_type, baseType: !79, size: 32, elements: !335)
!335 = !{!336}
!336 = !DISubrange(count: 4)
!337 = !DIImportedEntity(tag: DW_TAG_imported_declaration, scope: !2, entity: !338, line: 141)
!338 = !DIDerivedType(tag: DW_TAG_typedef, name: "wint_t", file: !339, line: 20, baseType: !62)
!339 = !DIFile(filename: "/usr/include/x86_64-linux-gnu/bits/types/wint_t.h", directory: "/home/nsas2020/fuzz/targetProcess/reorder")
!340 = !DIImportedEntity(tag: DW_TAG_imported_declaration, scope: !2, entity: !341, line: 143)
!341 = !DISubprogram(name: "btowc", scope: !342, file: !342, line: 284, type: !343, isLocal: false, isDefinition: false, flags: DIFlagPrototyped, isOptimized: false)
!342 = !DIFile(filename: "/usr/include/wchar.h", directory: "/home/nsas2020/fuzz/targetProcess/reorder")
!343 = !DISubroutineType(types: !344)
!344 = !{!338, !12}
!345 = !DIImportedEntity(tag: DW_TAG_imported_declaration, scope: !2, entity: !346, line: 144)
!346 = !DISubprogram(name: "fgetwc", scope: !342, file: !342, line: 726, type: !347, isLocal: false, isDefinition: false, flags: DIFlagPrototyped, isOptimized: false)
!347 = !DISubroutineType(types: !348)
!348 = !{!338, !349}
!349 = !DIDerivedType(tag: DW_TAG_pointer_type, baseType: !350, size: 64)
!350 = !DIDerivedType(tag: DW_TAG_typedef, name: "__FILE", file: !351, line: 5, baseType: !352)
!351 = !DIFile(filename: "/usr/include/x86_64-linux-gnu/bits/types/__FILE.h", directory: "/home/nsas2020/fuzz/targetProcess/reorder")
!352 = !DICompositeType(tag: DW_TAG_structure_type, name: "_IO_FILE", file: !353, line: 49, flags: DIFlagFwdDecl, identifier: "_ZTS8_IO_FILE")
!353 = !DIFile(filename: "/usr/include/x86_64-linux-gnu/bits/types/struct_FILE.h", directory: "/home/nsas2020/fuzz/targetProcess/reorder")
!354 = !DIImportedEntity(tag: DW_TAG_imported_declaration, scope: !2, entity: !355, line: 145)
!355 = !DISubprogram(name: "fgetws", scope: !342, file: !342, line: 755, type: !356, isLocal: false, isDefinition: false, flags: DIFlagPrototyped, isOptimized: false)
!356 = !DISubroutineType(types: !357)
!357 = !{!179, !178, !12, !358}
!358 = !DIDerivedType(tag: DW_TAG_restrict_type, baseType: !349)
!359 = !DIImportedEntity(tag: DW_TAG_imported_declaration, scope: !2, entity: !360, line: 146)
!360 = !DISubprogram(name: "fputwc", scope: !342, file: !342, line: 740, type: !361, isLocal: false, isDefinition: false, flags: DIFlagPrototyped, isOptimized: false)
!361 = !DISubroutineType(types: !362)
!362 = !{!338, !180, !349}
!363 = !DIImportedEntity(tag: DW_TAG_imported_declaration, scope: !2, entity: !364, line: 147)
!364 = !DISubprogram(name: "fputws", scope: !342, file: !342, line: 762, type: !365, isLocal: false, isDefinition: false, flags: DIFlagPrototyped, isOptimized: false)
!365 = !DISubroutineType(types: !366)
!366 = !{!12, !225, !358}
!367 = !DIImportedEntity(tag: DW_TAG_imported_declaration, scope: !2, entity: !368, line: 148)
!368 = !DISubprogram(name: "fwide", scope: !342, file: !342, line: 573, type: !369, isLocal: false, isDefinition: false, flags: DIFlagPrototyped, isOptimized: false)
!369 = !DISubroutineType(types: !370)
!370 = !{!12, !349, !12}
!371 = !DIImportedEntity(tag: DW_TAG_imported_declaration, scope: !2, entity: !372, line: 149)
!372 = !DISubprogram(name: "fwprintf", scope: !342, file: !342, line: 580, type: !373, isLocal: false, isDefinition: false, flags: DIFlagPrototyped, isOptimized: false)
!373 = !DISubroutineType(types: !374)
!374 = !{!12, !358, !225, null}
!375 = !DIImportedEntity(tag: DW_TAG_imported_declaration, scope: !2, entity: !376, line: 150)
!376 = !DISubprogram(name: "fwscanf", linkageName: "__isoc99_fwscanf", scope: !342, file: !342, line: 640, type: !373, isLocal: false, isDefinition: false, flags: DIFlagPrototyped, isOptimized: false)
!377 = !DIImportedEntity(tag: DW_TAG_imported_declaration, scope: !2, entity: !378, line: 151)
!378 = !DISubprogram(name: "getwc", scope: !342, file: !342, line: 727, type: !347, isLocal: false, isDefinition: false, flags: DIFlagPrototyped, isOptimized: false)
!379 = !DIImportedEntity(tag: DW_TAG_imported_declaration, scope: !2, entity: !380, line: 152)
!380 = !DISubprogram(name: "getwchar", scope: !342, file: !342, line: 733, type: !381, isLocal: false, isDefinition: false, flags: DIFlagPrototyped, isOptimized: false)
!381 = !DISubroutineType(types: !382)
!382 = !{!338}
!383 = !DIImportedEntity(tag: DW_TAG_imported_declaration, scope: !2, entity: !384, line: 153)
!384 = !DISubprogram(name: "mbrlen", scope: !342, file: !342, line: 307, type: !385, isLocal: false, isDefinition: false, flags: DIFlagPrototyped, isOptimized: false)
!385 = !DISubroutineType(types: !386)
!386 = !{!130, !181, !130, !387}
!387 = !DIDerivedType(tag: DW_TAG_restrict_type, baseType: !388)
!388 = !DIDerivedType(tag: DW_TAG_pointer_type, baseType: !322, size: 64)
!389 = !DIImportedEntity(tag: DW_TAG_imported_declaration, scope: !2, entity: !390, line: 154)
!390 = !DISubprogram(name: "mbrtowc", scope: !342, file: !342, line: 296, type: !391, isLocal: false, isDefinition: false, flags: DIFlagPrototyped, isOptimized: false)
!391 = !DISubroutineType(types: !392)
!392 = !{!130, !178, !181, !130, !387}
!393 = !DIImportedEntity(tag: DW_TAG_imported_declaration, scope: !2, entity: !394, line: 155)
!394 = !DISubprogram(name: "mbsinit", scope: !342, file: !342, line: 292, type: !395, isLocal: false, isDefinition: false, flags: DIFlagPrototyped, isOptimized: false)
!395 = !DISubroutineType(types: !396)
!396 = !{!12, !397}
!397 = !DIDerivedType(tag: DW_TAG_pointer_type, baseType: !398, size: 64)
!398 = !DIDerivedType(tag: DW_TAG_const_type, baseType: !322)
!399 = !DIImportedEntity(tag: DW_TAG_imported_declaration, scope: !2, entity: !400, line: 156)
!400 = !DISubprogram(name: "mbsrtowcs", scope: !342, file: !342, line: 337, type: !401, isLocal: false, isDefinition: false, flags: DIFlagPrototyped, isOptimized: false)
!401 = !DISubroutineType(types: !402)
!402 = !{!130, !178, !403, !130, !387}
!403 = !DIDerivedType(tag: DW_TAG_restrict_type, baseType: !404)
!404 = !DIDerivedType(tag: DW_TAG_pointer_type, baseType: !114, size: 64)
!405 = !DIImportedEntity(tag: DW_TAG_imported_declaration, scope: !2, entity: !406, line: 157)
!406 = !DISubprogram(name: "putwc", scope: !342, file: !342, line: 741, type: !361, isLocal: false, isDefinition: false, flags: DIFlagPrototyped, isOptimized: false)
!407 = !DIImportedEntity(tag: DW_TAG_imported_declaration, scope: !2, entity: !408, line: 158)
!408 = !DISubprogram(name: "putwchar", scope: !342, file: !342, line: 747, type: !409, isLocal: false, isDefinition: false, flags: DIFlagPrototyped, isOptimized: false)
!409 = !DISubroutineType(types: !410)
!410 = !{!338, !180}
!411 = !DIImportedEntity(tag: DW_TAG_imported_declaration, scope: !2, entity: !412, line: 160)
!412 = !DISubprogram(name: "swprintf", scope: !342, file: !342, line: 590, type: !413, isLocal: false, isDefinition: false, flags: DIFlagPrototyped, isOptimized: false)
!413 = !DISubroutineType(types: !414)
!414 = !{!12, !178, !130, !225, null}
!415 = !DIImportedEntity(tag: DW_TAG_imported_declaration, scope: !2, entity: !416, line: 162)
!416 = !DISubprogram(name: "swscanf", linkageName: "__isoc99_swscanf", scope: !342, file: !342, line: 647, type: !417, isLocal: false, isDefinition: false, flags: DIFlagPrototyped, isOptimized: false)
!417 = !DISubroutineType(types: !418)
!418 = !{!12, !225, !225, null}
!419 = !DIImportedEntity(tag: DW_TAG_imported_declaration, scope: !2, entity: !420, line: 163)
!420 = !DISubprogram(name: "ungetwc", scope: !342, file: !342, line: 770, type: !421, isLocal: false, isDefinition: false, flags: DIFlagPrototyped, isOptimized: false)
!421 = !DISubroutineType(types: !422)
!422 = !{!338, !338, !349}
!423 = !DIImportedEntity(tag: DW_TAG_imported_declaration, scope: !2, entity: !424, line: 164)
!424 = !DISubprogram(name: "vfwprintf", scope: !342, file: !342, line: 598, type: !425, isLocal: false, isDefinition: false, flags: DIFlagPrototyped, isOptimized: false)
!425 = !DISubroutineType(types: !426)
!426 = !{!12, !358, !225, !427}
!427 = !DIDerivedType(tag: DW_TAG_pointer_type, baseType: !428, size: 64)
!428 = distinct !DICompositeType(tag: DW_TAG_structure_type, name: "__va_list_tag", file: !32, size: 192, elements: !429, identifier: "_ZTS13__va_list_tag")
!429 = !{!430, !431, !432, !433}
!430 = !DIDerivedType(tag: DW_TAG_member, name: "gp_offset", scope: !428, file: !32, baseType: !62, size: 32)
!431 = !DIDerivedType(tag: DW_TAG_member, name: "fp_offset", scope: !428, file: !32, baseType: !62, size: 32, offset: 32)
!432 = !DIDerivedType(tag: DW_TAG_member, name: "overflow_arg_area", scope: !428, file: !32, baseType: !48, size: 64, offset: 64)
!433 = !DIDerivedType(tag: DW_TAG_member, name: "reg_save_area", scope: !428, file: !32, baseType: !48, size: 64, offset: 128)
!434 = !DIImportedEntity(tag: DW_TAG_imported_declaration, scope: !2, entity: !435, line: 166)
!435 = !DISubprogram(name: "vfwscanf", linkageName: "__isoc99_vfwscanf", scope: !342, file: !342, line: 693, type: !425, isLocal: false, isDefinition: false, flags: DIFlagPrototyped, isOptimized: false)
!436 = !DIImportedEntity(tag: DW_TAG_imported_declaration, scope: !2, entity: !437, line: 169)
!437 = !DISubprogram(name: "vswprintf", scope: !342, file: !342, line: 611, type: !438, isLocal: false, isDefinition: false, flags: DIFlagPrototyped, isOptimized: false)
!438 = !DISubroutineType(types: !439)
!439 = !{!12, !178, !130, !225, !427}
!440 = !DIImportedEntity(tag: DW_TAG_imported_declaration, scope: !2, entity: !441, line: 172)
!441 = !DISubprogram(name: "vswscanf", linkageName: "__isoc99_vswscanf", scope: !342, file: !342, line: 700, type: !442, isLocal: false, isDefinition: false, flags: DIFlagPrototyped, isOptimized: false)
!442 = !DISubroutineType(types: !443)
!443 = !{!12, !225, !225, !427}
!444 = !DIImportedEntity(tag: DW_TAG_imported_declaration, scope: !2, entity: !445, line: 174)
!445 = !DISubprogram(name: "vwprintf", scope: !342, file: !342, line: 606, type: !446, isLocal: false, isDefinition: false, flags: DIFlagPrototyped, isOptimized: false)
!446 = !DISubroutineType(types: !447)
!447 = !{!12, !225, !427}
!448 = !DIImportedEntity(tag: DW_TAG_imported_declaration, scope: !2, entity: !449, line: 176)
!449 = !DISubprogram(name: "vwscanf", linkageName: "__isoc99_vwscanf", scope: !342, file: !342, line: 697, type: !446, isLocal: false, isDefinition: false, flags: DIFlagPrototyped, isOptimized: false)
!450 = !DIImportedEntity(tag: DW_TAG_imported_declaration, scope: !2, entity: !451, line: 178)
!451 = !DISubprogram(name: "wcrtomb", scope: !342, file: !342, line: 301, type: !452, isLocal: false, isDefinition: false, flags: DIFlagPrototyped, isOptimized: false)
!452 = !DISubroutineType(types: !453)
!453 = !{!130, !224, !180, !387}
!454 = !DIImportedEntity(tag: DW_TAG_imported_declaration, scope: !2, entity: !455, line: 179)
!455 = !DISubprogram(name: "wcscat", scope: !342, file: !342, line: 97, type: !456, isLocal: false, isDefinition: false, flags: DIFlagPrototyped, isOptimized: false)
!456 = !DISubroutineType(types: !457)
!457 = !{!179, !178, !225}
!458 = !DIImportedEntity(tag: DW_TAG_imported_declaration, scope: !2, entity: !459, line: 180)
!459 = !DISubprogram(name: "wcscmp", scope: !342, file: !342, line: 106, type: !460, isLocal: false, isDefinition: false, flags: DIFlagPrototyped, isOptimized: false)
!460 = !DISubroutineType(types: !461)
!461 = !{!12, !226, !226}
!462 = !DIImportedEntity(tag: DW_TAG_imported_declaration, scope: !2, entity: !463, line: 181)
!463 = !DISubprogram(name: "wcscoll", scope: !342, file: !342, line: 131, type: !460, isLocal: false, isDefinition: false, flags: DIFlagPrototyped, isOptimized: false)
!464 = !DIImportedEntity(tag: DW_TAG_imported_declaration, scope: !2, entity: !465, line: 182)
!465 = !DISubprogram(name: "wcscpy", scope: !342, file: !342, line: 87, type: !456, isLocal: false, isDefinition: false, flags: DIFlagPrototyped, isOptimized: false)
!466 = !DIImportedEntity(tag: DW_TAG_imported_declaration, scope: !2, entity: !467, line: 183)
!467 = !DISubprogram(name: "wcscspn", scope: !342, file: !342, line: 187, type: !468, isLocal: false, isDefinition: false, flags: DIFlagPrototyped, isOptimized: false)
!468 = !DISubroutineType(types: !469)
!469 = !{!130, !226, !226}
!470 = !DIImportedEntity(tag: DW_TAG_imported_declaration, scope: !2, entity: !471, line: 184)
!471 = !DISubprogram(name: "wcsftime", scope: !342, file: !342, line: 834, type: !472, isLocal: false, isDefinition: false, flags: DIFlagPrototyped, isOptimized: false)
!472 = !DISubroutineType(types: !473)
!473 = !{!130, !178, !130, !225, !474}
!474 = !DIDerivedType(tag: DW_TAG_restrict_type, baseType: !475)
!475 = !DIDerivedType(tag: DW_TAG_pointer_type, baseType: !476, size: 64)
!476 = !DIDerivedType(tag: DW_TAG_const_type, baseType: !477)
!477 = !DICompositeType(tag: DW_TAG_structure_type, name: "tm", file: !478, line: 7, flags: DIFlagFwdDecl, identifier: "_ZTS2tm")
!478 = !DIFile(filename: "/usr/include/x86_64-linux-gnu/bits/types/struct_tm.h", directory: "/home/nsas2020/fuzz/targetProcess/reorder")
!479 = !DIImportedEntity(tag: DW_TAG_imported_declaration, scope: !2, entity: !480, line: 185)
!480 = !DISubprogram(name: "wcslen", scope: !342, file: !342, line: 222, type: !481, isLocal: false, isDefinition: false, flags: DIFlagPrototyped, isOptimized: false)
!481 = !DISubroutineType(types: !482)
!482 = !{!130, !226}
!483 = !DIImportedEntity(tag: DW_TAG_imported_declaration, scope: !2, entity: !484, line: 186)
!484 = !DISubprogram(name: "wcsncat", scope: !342, file: !342, line: 101, type: !485, isLocal: false, isDefinition: false, flags: DIFlagPrototyped, isOptimized: false)
!485 = !DISubroutineType(types: !486)
!486 = !{!179, !178, !225, !130}
!487 = !DIImportedEntity(tag: DW_TAG_imported_declaration, scope: !2, entity: !488, line: 187)
!488 = !DISubprogram(name: "wcsncmp", scope: !342, file: !342, line: 109, type: !489, isLocal: false, isDefinition: false, flags: DIFlagPrototyped, isOptimized: false)
!489 = !DISubroutineType(types: !490)
!490 = !{!12, !226, !226, !130}
!491 = !DIImportedEntity(tag: DW_TAG_imported_declaration, scope: !2, entity: !492, line: 188)
!492 = !DISubprogram(name: "wcsncpy", scope: !342, file: !342, line: 92, type: !485, isLocal: false, isDefinition: false, flags: DIFlagPrototyped, isOptimized: false)
!493 = !DIImportedEntity(tag: DW_TAG_imported_declaration, scope: !2, entity: !494, line: 189)
!494 = !DISubprogram(name: "wcsrtombs", scope: !342, file: !342, line: 343, type: !495, isLocal: false, isDefinition: false, flags: DIFlagPrototyped, isOptimized: false)
!495 = !DISubroutineType(types: !496)
!496 = !{!130, !224, !497, !130, !387}
!497 = !DIDerivedType(tag: DW_TAG_restrict_type, baseType: !498)
!498 = !DIDerivedType(tag: DW_TAG_pointer_type, baseType: !226, size: 64)
!499 = !DIImportedEntity(tag: DW_TAG_imported_declaration, scope: !2, entity: !500, line: 190)
!500 = !DISubprogram(name: "wcsspn", scope: !342, file: !342, line: 191, type: !468, isLocal: false, isDefinition: false, flags: DIFlagPrototyped, isOptimized: false)
!501 = !DIImportedEntity(tag: DW_TAG_imported_declaration, scope: !2, entity: !502, line: 191)
!502 = !DISubprogram(name: "wcstod", scope: !342, file: !342, line: 377, type: !503, isLocal: false, isDefinition: false, flags: DIFlagPrototyped, isOptimized: false)
!503 = !DISubroutineType(types: !504)
!504 = !{!113, !225, !505}
!505 = !DIDerivedType(tag: DW_TAG_restrict_type, baseType: !506)
!506 = !DIDerivedType(tag: DW_TAG_pointer_type, baseType: !179, size: 64)
!507 = !DIImportedEntity(tag: DW_TAG_imported_declaration, scope: !2, entity: !508, line: 193)
!508 = !DISubprogram(name: "wcstof", scope: !342, file: !342, line: 382, type: !509, isLocal: false, isDefinition: false, flags: DIFlagPrototyped, isOptimized: false)
!509 = !DISubroutineType(types: !510)
!510 = !{!267, !225, !505}
!511 = !DIImportedEntity(tag: DW_TAG_imported_declaration, scope: !2, entity: !512, line: 195)
!512 = !DISubprogram(name: "wcstok", scope: !342, file: !342, line: 217, type: !513, isLocal: false, isDefinition: false, flags: DIFlagPrototyped, isOptimized: false)
!513 = !DISubroutineType(types: !514)
!514 = !{!179, !178, !225, !505}
!515 = !DIImportedEntity(tag: DW_TAG_imported_declaration, scope: !2, entity: !516, line: 196)
!516 = !DISubprogram(name: "wcstol", scope: !342, file: !342, line: 428, type: !517, isLocal: false, isDefinition: false, flags: DIFlagPrototyped, isOptimized: false)
!517 = !DISubroutineType(types: !518)
!518 = !{!47, !225, !505, !12}
!519 = !DIImportedEntity(tag: DW_TAG_imported_declaration, scope: !2, entity: !520, line: 197)
!520 = !DISubprogram(name: "wcstoul", scope: !342, file: !342, line: 433, type: !521, isLocal: false, isDefinition: false, flags: DIFlagPrototyped, isOptimized: false)
!521 = !DISubroutineType(types: !522)
!522 = !{!132, !225, !505, !12}
!523 = !DIImportedEntity(tag: DW_TAG_imported_declaration, scope: !2, entity: !524, line: 198)
!524 = !DISubprogram(name: "wcsxfrm", scope: !342, file: !342, line: 135, type: !525, isLocal: false, isDefinition: false, flags: DIFlagPrototyped, isOptimized: false)
!525 = !DISubroutineType(types: !526)
!526 = !{!130, !178, !225, !130}
!527 = !DIImportedEntity(tag: DW_TAG_imported_declaration, scope: !2, entity: !528, line: 199)
!528 = !DISubprogram(name: "wctob", scope: !342, file: !342, line: 288, type: !529, isLocal: false, isDefinition: false, flags: DIFlagPrototyped, isOptimized: false)
!529 = !DISubroutineType(types: !530)
!530 = !{!12, !338}
!531 = !DIImportedEntity(tag: DW_TAG_imported_declaration, scope: !2, entity: !532, line: 200)
!532 = !DISubprogram(name: "wmemcmp", scope: !342, file: !342, line: 258, type: !489, isLocal: false, isDefinition: false, flags: DIFlagPrototyped, isOptimized: false)
!533 = !DIImportedEntity(tag: DW_TAG_imported_declaration, scope: !2, entity: !534, line: 201)
!534 = !DISubprogram(name: "wmemcpy", scope: !342, file: !342, line: 262, type: !485, isLocal: false, isDefinition: false, flags: DIFlagPrototyped, isOptimized: false)
!535 = !DIImportedEntity(tag: DW_TAG_imported_declaration, scope: !2, entity: !536, line: 202)
!536 = !DISubprogram(name: "wmemmove", scope: !342, file: !342, line: 267, type: !537, isLocal: false, isDefinition: false, flags: DIFlagPrototyped, isOptimized: false)
!537 = !DISubroutineType(types: !538)
!538 = !{!179, !179, !226, !130}
!539 = !DIImportedEntity(tag: DW_TAG_imported_declaration, scope: !2, entity: !540, line: 203)
!540 = !DISubprogram(name: "wmemset", scope: !342, file: !342, line: 271, type: !541, isLocal: false, isDefinition: false, flags: DIFlagPrototyped, isOptimized: false)
!541 = !DISubroutineType(types: !542)
!542 = !{!179, !179, !180, !130}
!543 = !DIImportedEntity(tag: DW_TAG_imported_declaration, scope: !2, entity: !544, line: 204)
!544 = !DISubprogram(name: "wprintf", scope: !342, file: !342, line: 587, type: !545, isLocal: false, isDefinition: false, flags: DIFlagPrototyped, isOptimized: false)
!545 = !DISubroutineType(types: !546)
!546 = !{!12, !225, null}
!547 = !DIImportedEntity(tag: DW_TAG_imported_declaration, scope: !2, entity: !548, line: 205)
!548 = !DISubprogram(name: "wscanf", linkageName: "__isoc99_wscanf", scope: !342, file: !342, line: 644, type: !545, isLocal: false, isDefinition: false, flags: DIFlagPrototyped, isOptimized: false)
!549 = !DIImportedEntity(tag: DW_TAG_imported_declaration, scope: !2, entity: !550, line: 206)
!550 = !DISubprogram(name: "wcschr", scope: !342, file: !342, line: 164, type: !551, isLocal: false, isDefinition: false, flags: DIFlagPrototyped, isOptimized: false)
!551 = !DISubroutineType(types: !552)
!552 = !{!179, !226, !180}
!553 = !DIImportedEntity(tag: DW_TAG_imported_declaration, scope: !2, entity: !554, line: 207)
!554 = !DISubprogram(name: "wcspbrk", scope: !342, file: !342, line: 201, type: !555, isLocal: false, isDefinition: false, flags: DIFlagPrototyped, isOptimized: false)
!555 = !DISubroutineType(types: !556)
!556 = !{!179, !226, !226}
!557 = !DIImportedEntity(tag: DW_TAG_imported_declaration, scope: !2, entity: !558, line: 208)
!558 = !DISubprogram(name: "wcsrchr", scope: !342, file: !342, line: 174, type: !551, isLocal: false, isDefinition: false, flags: DIFlagPrototyped, isOptimized: false)
!559 = !DIImportedEntity(tag: DW_TAG_imported_declaration, scope: !2, entity: !560, line: 209)
!560 = !DISubprogram(name: "wcsstr", scope: !342, file: !342, line: 212, type: !555, isLocal: false, isDefinition: false, flags: DIFlagPrototyped, isOptimized: false)
!561 = !DIImportedEntity(tag: DW_TAG_imported_declaration, scope: !2, entity: !562, line: 210)
!562 = !DISubprogram(name: "wmemchr", scope: !342, file: !342, line: 253, type: !563, isLocal: false, isDefinition: false, flags: DIFlagPrototyped, isOptimized: false)
!563 = !DISubroutineType(types: !564)
!564 = !{!179, !226, !180, !130}
!565 = !DIImportedEntity(tag: DW_TAG_imported_declaration, scope: !233, entity: !566, line: 251)
!566 = !DISubprogram(name: "wcstold", scope: !342, file: !342, line: 384, type: !567, isLocal: false, isDefinition: false, flags: DIFlagPrototyped, isOptimized: false)
!567 = !DISubroutineType(types: !568)
!568 = !{!272, !225, !505}
!569 = !DIImportedEntity(tag: DW_TAG_imported_declaration, scope: !233, entity: !570, line: 260)
!570 = !DISubprogram(name: "wcstoll", scope: !342, file: !342, line: 441, type: !571, isLocal: false, isDefinition: false, flags: DIFlagPrototyped, isOptimized: false)
!571 = !DISubroutineType(types: !572)
!572 = !{!238, !225, !505, !12}
!573 = !DIImportedEntity(tag: DW_TAG_imported_declaration, scope: !233, entity: !574, line: 261)
!574 = !DISubprogram(name: "wcstoull", scope: !342, file: !342, line: 448, type: !575, isLocal: false, isDefinition: false, flags: DIFlagPrototyped, isOptimized: false)
!575 = !DISubroutineType(types: !576)
!576 = !{!262, !225, !505, !12}
!577 = !DIImportedEntity(tag: DW_TAG_imported_declaration, scope: !2, entity: !566, line: 267)
!578 = !DIImportedEntity(tag: DW_TAG_imported_declaration, scope: !2, entity: !570, line: 268)
!579 = !DIImportedEntity(tag: DW_TAG_imported_declaration, scope: !2, entity: !574, line: 269)
!580 = !DIImportedEntity(tag: DW_TAG_imported_declaration, scope: !2, entity: !508, line: 283)
!581 = !DIImportedEntity(tag: DW_TAG_imported_declaration, scope: !2, entity: !435, line: 286)
!582 = !DIImportedEntity(tag: DW_TAG_imported_declaration, scope: !2, entity: !441, line: 289)
!583 = !DIImportedEntity(tag: DW_TAG_imported_declaration, scope: !2, entity: !449, line: 292)
!584 = !DIImportedEntity(tag: DW_TAG_imported_declaration, scope: !2, entity: !566, line: 296)
!585 = !DIImportedEntity(tag: DW_TAG_imported_declaration, scope: !2, entity: !570, line: 297)
!586 = !DIImportedEntity(tag: DW_TAG_imported_declaration, scope: !2, entity: !574, line: 298)
!587 = !DIImportedEntity(tag: DW_TAG_imported_declaration, scope: !2, entity: !588, line: 57)
!588 = distinct !DICompositeType(tag: DW_TAG_class_type, name: "exception_ptr", scope: !590, file: !589, line: 79, size: 64, elements: !591, identifier: "_ZTSNSt15__exception_ptr13exception_ptrE")
!589 = !DIFile(filename: "/usr/lib/gcc/x86_64-linux-gnu/9/../../../../include/c++/9/bits/exception_ptr.h", directory: "/home/nsas2020/fuzz/targetProcess/reorder")
!590 = !DINamespace(name: "__exception_ptr", scope: !2, file: !589, line: 52)
!591 = !{!592, !593, !597, !600, !601, !606, !607, !611, !616, !620, !624, !627, !628, !631, !634}
!592 = !DIDerivedType(tag: DW_TAG_member, name: "_M_exception_object", scope: !588, file: !589, line: 81, baseType: !48, size: 64)
!593 = !DISubprogram(name: "exception_ptr", scope: !588, file: !589, line: 83, type: !594, isLocal: false, isDefinition: false, scopeLine: 83, flags: DIFlagExplicit | DIFlagPrototyped, isOptimized: false)
!594 = !DISubroutineType(types: !595)
!595 = !{null, !596, !48}
!596 = !DIDerivedType(tag: DW_TAG_pointer_type, baseType: !588, size: 64, flags: DIFlagArtificial | DIFlagObjectPointer)
!597 = !DISubprogram(name: "_M_addref", linkageName: "_ZNSt15__exception_ptr13exception_ptr9_M_addrefEv", scope: !588, file: !589, line: 85, type: !598, isLocal: false, isDefinition: false, scopeLine: 85, flags: DIFlagPrototyped, isOptimized: false)
!598 = !DISubroutineType(types: !599)
!599 = !{null, !596}
!600 = !DISubprogram(name: "_M_release", linkageName: "_ZNSt15__exception_ptr13exception_ptr10_M_releaseEv", scope: !588, file: !589, line: 86, type: !598, isLocal: false, isDefinition: false, scopeLine: 86, flags: DIFlagPrototyped, isOptimized: false)
!601 = !DISubprogram(name: "_M_get", linkageName: "_ZNKSt15__exception_ptr13exception_ptr6_M_getEv", scope: !588, file: !589, line: 88, type: !602, isLocal: false, isDefinition: false, scopeLine: 88, flags: DIFlagPrototyped, isOptimized: false)
!602 = !DISubroutineType(types: !603)
!603 = !{!48, !604}
!604 = !DIDerivedType(tag: DW_TAG_pointer_type, baseType: !605, size: 64, flags: DIFlagArtificial | DIFlagObjectPointer)
!605 = !DIDerivedType(tag: DW_TAG_const_type, baseType: !588)
!606 = !DISubprogram(name: "exception_ptr", scope: !588, file: !589, line: 96, type: !598, isLocal: false, isDefinition: false, scopeLine: 96, flags: DIFlagPublic | DIFlagPrototyped, isOptimized: false)
!607 = !DISubprogram(name: "exception_ptr", scope: !588, file: !589, line: 98, type: !608, isLocal: false, isDefinition: false, scopeLine: 98, flags: DIFlagPublic | DIFlagPrototyped, isOptimized: false)
!608 = !DISubroutineType(types: !609)
!609 = !{null, !596, !610}
!610 = !DIDerivedType(tag: DW_TAG_reference_type, baseType: !605, size: 64)
!611 = !DISubprogram(name: "exception_ptr", scope: !588, file: !589, line: 101, type: !612, isLocal: false, isDefinition: false, scopeLine: 101, flags: DIFlagPublic | DIFlagPrototyped, isOptimized: false)
!612 = !DISubroutineType(types: !613)
!613 = !{null, !596, !614}
!614 = !DIDerivedType(tag: DW_TAG_typedef, name: "nullptr_t", scope: !2, file: !3, line: 262, baseType: !615)
!615 = !DIBasicType(tag: DW_TAG_unspecified_type, name: "decltype(nullptr)")
!616 = !DISubprogram(name: "exception_ptr", scope: !588, file: !589, line: 105, type: !617, isLocal: false, isDefinition: false, scopeLine: 105, flags: DIFlagPublic | DIFlagPrototyped, isOptimized: false)
!617 = !DISubroutineType(types: !618)
!618 = !{null, !596, !619}
!619 = !DIDerivedType(tag: DW_TAG_rvalue_reference_type, baseType: !588, size: 64)
!620 = !DISubprogram(name: "operator=", linkageName: "_ZNSt15__exception_ptr13exception_ptraSERKS0_", scope: !588, file: !589, line: 118, type: !621, isLocal: false, isDefinition: false, scopeLine: 118, flags: DIFlagPublic | DIFlagPrototyped, isOptimized: false)
!621 = !DISubroutineType(types: !622)
!622 = !{!623, !596, !610}
!623 = !DIDerivedType(tag: DW_TAG_reference_type, baseType: !588, size: 64)
!624 = !DISubprogram(name: "operator=", linkageName: "_ZNSt15__exception_ptr13exception_ptraSEOS0_", scope: !588, file: !589, line: 122, type: !625, isLocal: false, isDefinition: false, scopeLine: 122, flags: DIFlagPublic | DIFlagPrototyped, isOptimized: false)
!625 = !DISubroutineType(types: !626)
!626 = !{!623, !596, !619}
!627 = !DISubprogram(name: "~exception_ptr", scope: !588, file: !589, line: 129, type: !598, isLocal: false, isDefinition: false, scopeLine: 129, flags: DIFlagPublic | DIFlagPrototyped, isOptimized: false)
!628 = !DISubprogram(name: "swap", linkageName: "_ZNSt15__exception_ptr13exception_ptr4swapERS0_", scope: !588, file: !589, line: 132, type: !629, isLocal: false, isDefinition: false, scopeLine: 132, flags: DIFlagPublic | DIFlagPrototyped, isOptimized: false)
!629 = !DISubroutineType(types: !630)
!630 = !{null, !596, !623}
!631 = !DISubprogram(name: "operator bool", linkageName: "_ZNKSt15__exception_ptr13exception_ptrcvbEv", scope: !588, file: !589, line: 144, type: !632, isLocal: false, isDefinition: false, scopeLine: 144, flags: DIFlagPublic | DIFlagExplicit | DIFlagPrototyped, isOptimized: false)
!632 = !DISubroutineType(types: !633)
!633 = !{!14, !604}
!634 = !DISubprogram(name: "__cxa_exception_type", linkageName: "_ZNKSt15__exception_ptr13exception_ptr20__cxa_exception_typeEv", scope: !588, file: !589, line: 153, type: !635, isLocal: false, isDefinition: false, scopeLine: 153, flags: DIFlagPublic | DIFlagPrototyped, isOptimized: false)
!635 = !DISubroutineType(types: !636)
!636 = !{!637, !604}
!637 = !DIDerivedType(tag: DW_TAG_pointer_type, baseType: !638, size: 64)
!638 = !DIDerivedType(tag: DW_TAG_const_type, baseType: !639)
!639 = !DICompositeType(tag: DW_TAG_class_type, name: "type_info", scope: !2, file: !640, line: 88, flags: DIFlagFwdDecl, identifier: "_ZTSSt9type_info")
!640 = !DIFile(filename: "/usr/lib/gcc/x86_64-linux-gnu/9/../../../../include/c++/9/typeinfo", directory: "/home/nsas2020/fuzz/targetProcess/reorder")
!641 = !DIImportedEntity(tag: DW_TAG_imported_declaration, scope: !590, entity: !642, line: 73)
!642 = !DISubprogram(name: "rethrow_exception", linkageName: "_ZSt17rethrow_exceptionNSt15__exception_ptr13exception_ptrE", scope: !2, file: !589, line: 69, type: !643, isLocal: false, isDefinition: false, flags: DIFlagPrototyped | DIFlagNoReturn, isOptimized: false)
!643 = !DISubroutineType(types: !644)
!644 = !{null, !588}
!645 = !DIImportedEntity(tag: DW_TAG_imported_module, scope: !646, entity: !648, line: 58)
!646 = !DINamespace(name: "__gnu_debug", scope: null, file: !647, line: 56)
!647 = !DIFile(filename: "/usr/lib/gcc/x86_64-linux-gnu/9/../../../../include/c++/9/debug/debug.h", directory: "/home/nsas2020/fuzz/targetProcess/reorder")
!648 = !DINamespace(name: "__debug", scope: !2, file: !647, line: 50)
!649 = !DIImportedEntity(tag: DW_TAG_imported_declaration, scope: !2, entity: !650, line: 47)
!650 = !DIDerivedType(tag: DW_TAG_typedef, name: "int8_t", file: !651, line: 24, baseType: !652)
!651 = !DIFile(filename: "/usr/include/x86_64-linux-gnu/bits/stdint-intn.h", directory: "/home/nsas2020/fuzz/targetProcess/reorder")
!652 = !DIDerivedType(tag: DW_TAG_typedef, name: "__int8_t", file: !653, line: 37, baseType: !654)
!653 = !DIFile(filename: "/usr/include/x86_64-linux-gnu/bits/types.h", directory: "/home/nsas2020/fuzz/targetProcess/reorder")
!654 = !DIBasicType(name: "signed char", size: 8, encoding: DW_ATE_signed_char)
!655 = !DIImportedEntity(tag: DW_TAG_imported_declaration, scope: !2, entity: !656, line: 48)
!656 = !DIDerivedType(tag: DW_TAG_typedef, name: "int16_t", file: !651, line: 25, baseType: !657)
!657 = !DIDerivedType(tag: DW_TAG_typedef, name: "__int16_t", file: !653, line: 39, baseType: !67)
!658 = !DIImportedEntity(tag: DW_TAG_imported_declaration, scope: !2, entity: !659, line: 49)
!659 = !DIDerivedType(tag: DW_TAG_typedef, name: "int32_t", file: !651, line: 26, baseType: !660)
!660 = !DIDerivedType(tag: DW_TAG_typedef, name: "__int32_t", file: !653, line: 41, baseType: !12)
!661 = !DIImportedEntity(tag: DW_TAG_imported_declaration, scope: !2, entity: !662, line: 50)
!662 = !DIDerivedType(tag: DW_TAG_typedef, name: "int64_t", file: !651, line: 27, baseType: !663)
!663 = !DIDerivedType(tag: DW_TAG_typedef, name: "__int64_t", file: !653, line: 44, baseType: !47)
!664 = !DIImportedEntity(tag: DW_TAG_imported_declaration, scope: !2, entity: !665, line: 52)
!665 = !DIDerivedType(tag: DW_TAG_typedef, name: "int_fast8_t", file: !666, line: 58, baseType: !654)
!666 = !DIFile(filename: "/usr/include/stdint.h", directory: "/home/nsas2020/fuzz/targetProcess/reorder")
!667 = !DIImportedEntity(tag: DW_TAG_imported_declaration, scope: !2, entity: !668, line: 53)
!668 = !DIDerivedType(tag: DW_TAG_typedef, name: "int_fast16_t", file: !666, line: 60, baseType: !47)
!669 = !DIImportedEntity(tag: DW_TAG_imported_declaration, scope: !2, entity: !670, line: 54)
!670 = !DIDerivedType(tag: DW_TAG_typedef, name: "int_fast32_t", file: !666, line: 61, baseType: !47)
!671 = !DIImportedEntity(tag: DW_TAG_imported_declaration, scope: !2, entity: !672, line: 55)
!672 = !DIDerivedType(tag: DW_TAG_typedef, name: "int_fast64_t", file: !666, line: 62, baseType: !47)
!673 = !DIImportedEntity(tag: DW_TAG_imported_declaration, scope: !2, entity: !674, line: 57)
!674 = !DIDerivedType(tag: DW_TAG_typedef, name: "int_least8_t", file: !666, line: 43, baseType: !675)
!675 = !DIDerivedType(tag: DW_TAG_typedef, name: "__int_least8_t", file: !653, line: 52, baseType: !652)
!676 = !DIImportedEntity(tag: DW_TAG_imported_declaration, scope: !2, entity: !677, line: 58)
!677 = !DIDerivedType(tag: DW_TAG_typedef, name: "int_least16_t", file: !666, line: 44, baseType: !678)
!678 = !DIDerivedType(tag: DW_TAG_typedef, name: "__int_least16_t", file: !653, line: 54, baseType: !657)
!679 = !DIImportedEntity(tag: DW_TAG_imported_declaration, scope: !2, entity: !680, line: 59)
!680 = !DIDerivedType(tag: DW_TAG_typedef, name: "int_least32_t", file: !666, line: 45, baseType: !681)
!681 = !DIDerivedType(tag: DW_TAG_typedef, name: "__int_least32_t", file: !653, line: 56, baseType: !660)
!682 = !DIImportedEntity(tag: DW_TAG_imported_declaration, scope: !2, entity: !683, line: 60)
!683 = !DIDerivedType(tag: DW_TAG_typedef, name: "int_least64_t", file: !666, line: 46, baseType: !684)
!684 = !DIDerivedType(tag: DW_TAG_typedef, name: "__int_least64_t", file: !653, line: 58, baseType: !663)
!685 = !DIImportedEntity(tag: DW_TAG_imported_declaration, scope: !2, entity: !686, line: 62)
!686 = !DIDerivedType(tag: DW_TAG_typedef, name: "intmax_t", file: !666, line: 101, baseType: !687)
!687 = !DIDerivedType(tag: DW_TAG_typedef, name: "__intmax_t", file: !653, line: 72, baseType: !47)
!688 = !DIImportedEntity(tag: DW_TAG_imported_declaration, scope: !2, entity: !689, line: 63)
!689 = !DIDerivedType(tag: DW_TAG_typedef, name: "intptr_t", file: !666, line: 87, baseType: !47)
!690 = !DIImportedEntity(tag: DW_TAG_imported_declaration, scope: !2, entity: !691, line: 65)
!691 = !DIDerivedType(tag: DW_TAG_typedef, name: "uint8_t", file: !692, line: 24, baseType: !693)
!692 = !DIFile(filename: "/usr/include/x86_64-linux-gnu/bits/stdint-uintn.h", directory: "/home/nsas2020/fuzz/targetProcess/reorder")
!693 = !DIDerivedType(tag: DW_TAG_typedef, name: "__uint8_t", file: !653, line: 38, baseType: !694)
!694 = !DIBasicType(name: "unsigned char", size: 8, encoding: DW_ATE_unsigned_char)
!695 = !DIImportedEntity(tag: DW_TAG_imported_declaration, scope: !2, entity: !696, line: 66)
!696 = !DIDerivedType(tag: DW_TAG_typedef, name: "uint16_t", file: !692, line: 25, baseType: !697)
!697 = !DIDerivedType(tag: DW_TAG_typedef, name: "__uint16_t", file: !653, line: 40, baseType: !698)
!698 = !DIBasicType(name: "unsigned short", size: 16, encoding: DW_ATE_unsigned)
!699 = !DIImportedEntity(tag: DW_TAG_imported_declaration, scope: !2, entity: !700, line: 67)
!700 = !DIDerivedType(tag: DW_TAG_typedef, name: "uint32_t", file: !692, line: 26, baseType: !701)
!701 = !DIDerivedType(tag: DW_TAG_typedef, name: "__uint32_t", file: !653, line: 42, baseType: !62)
!702 = !DIImportedEntity(tag: DW_TAG_imported_declaration, scope: !2, entity: !703, line: 68)
!703 = !DIDerivedType(tag: DW_TAG_typedef, name: "uint64_t", file: !692, line: 27, baseType: !704)
!704 = !DIDerivedType(tag: DW_TAG_typedef, name: "__uint64_t", file: !653, line: 45, baseType: !132)
!705 = !DIImportedEntity(tag: DW_TAG_imported_declaration, scope: !2, entity: !706, line: 70)
!706 = !DIDerivedType(tag: DW_TAG_typedef, name: "uint_fast8_t", file: !666, line: 71, baseType: !694)
!707 = !DIImportedEntity(tag: DW_TAG_imported_declaration, scope: !2, entity: !708, line: 71)
!708 = !DIDerivedType(tag: DW_TAG_typedef, name: "uint_fast16_t", file: !666, line: 73, baseType: !132)
!709 = !DIImportedEntity(tag: DW_TAG_imported_declaration, scope: !2, entity: !710, line: 72)
!710 = !DIDerivedType(tag: DW_TAG_typedef, name: "uint_fast32_t", file: !666, line: 74, baseType: !132)
!711 = !DIImportedEntity(tag: DW_TAG_imported_declaration, scope: !2, entity: !712, line: 73)
!712 = !DIDerivedType(tag: DW_TAG_typedef, name: "uint_fast64_t", file: !666, line: 75, baseType: !132)
!713 = !DIImportedEntity(tag: DW_TAG_imported_declaration, scope: !2, entity: !714, line: 75)
!714 = !DIDerivedType(tag: DW_TAG_typedef, name: "uint_least8_t", file: !666, line: 49, baseType: !715)
!715 = !DIDerivedType(tag: DW_TAG_typedef, name: "__uint_least8_t", file: !653, line: 53, baseType: !693)
!716 = !DIImportedEntity(tag: DW_TAG_imported_declaration, scope: !2, entity: !717, line: 76)
!717 = !DIDerivedType(tag: DW_TAG_typedef, name: "uint_least16_t", file: !666, line: 50, baseType: !718)
!718 = !DIDerivedType(tag: DW_TAG_typedef, name: "__uint_least16_t", file: !653, line: 55, baseType: !697)
!719 = !DIImportedEntity(tag: DW_TAG_imported_declaration, scope: !2, entity: !720, line: 77)
!720 = !DIDerivedType(tag: DW_TAG_typedef, name: "uint_least32_t", file: !666, line: 51, baseType: !721)
!721 = !DIDerivedType(tag: DW_TAG_typedef, name: "__uint_least32_t", file: !653, line: 57, baseType: !701)
!722 = !DIImportedEntity(tag: DW_TAG_imported_declaration, scope: !2, entity: !723, line: 78)
!723 = !DIDerivedType(tag: DW_TAG_typedef, name: "uint_least64_t", file: !666, line: 52, baseType: !724)
!724 = !DIDerivedType(tag: DW_TAG_typedef, name: "__uint_least64_t", file: !653, line: 59, baseType: !704)
!725 = !DIImportedEntity(tag: DW_TAG_imported_declaration, scope: !2, entity: !726, line: 80)
!726 = !DIDerivedType(tag: DW_TAG_typedef, name: "uintmax_t", file: !666, line: 102, baseType: !727)
!727 = !DIDerivedType(tag: DW_TAG_typedef, name: "__uintmax_t", file: !653, line: 73, baseType: !132)
!728 = !DIImportedEntity(tag: DW_TAG_imported_declaration, scope: !2, entity: !729, line: 81)
!729 = !DIDerivedType(tag: DW_TAG_typedef, name: "uintptr_t", file: !666, line: 90, baseType: !132)
!730 = !DIImportedEntity(tag: DW_TAG_imported_declaration, scope: !2, entity: !731, line: 53)
!731 = !DICompositeType(tag: DW_TAG_structure_type, name: "lconv", file: !732, line: 51, flags: DIFlagFwdDecl, identifier: "_ZTS5lconv")
!732 = !DIFile(filename: "/usr/include/locale.h", directory: "/home/nsas2020/fuzz/targetProcess/reorder")
!733 = !DIImportedEntity(tag: DW_TAG_imported_declaration, scope: !2, entity: !734, line: 54)
!734 = !DISubprogram(name: "setlocale", scope: !732, file: !732, line: 122, type: !735, isLocal: false, isDefinition: false, flags: DIFlagPrototyped, isOptimized: false)
!735 = !DISubroutineType(types: !736)
!736 = !{!157, !12, !114}
!737 = !DIImportedEntity(tag: DW_TAG_imported_declaration, scope: !2, entity: !738, line: 55)
!738 = !DISubprogram(name: "localeconv", scope: !732, file: !732, line: 125, type: !739, isLocal: false, isDefinition: false, flags: DIFlagPrototyped, isOptimized: false)
!739 = !DISubroutineType(types: !740)
!740 = !{!741}
!741 = !DIDerivedType(tag: DW_TAG_pointer_type, baseType: !731, size: 64)
!742 = !DIImportedEntity(tag: DW_TAG_imported_declaration, scope: !2, entity: !743, line: 64)
!743 = !DISubprogram(name: "isalnum", scope: !744, file: !744, line: 108, type: !87, isLocal: false, isDefinition: false, flags: DIFlagPrototyped, isOptimized: false)
!744 = !DIFile(filename: "/usr/include/ctype.h", directory: "/home/nsas2020/fuzz/targetProcess/reorder")
!745 = !DIImportedEntity(tag: DW_TAG_imported_declaration, scope: !2, entity: !746, line: 65)
!746 = !DISubprogram(name: "isalpha", scope: !744, file: !744, line: 109, type: !87, isLocal: false, isDefinition: false, flags: DIFlagPrototyped, isOptimized: false)
!747 = !DIImportedEntity(tag: DW_TAG_imported_declaration, scope: !2, entity: !748, line: 66)
!748 = !DISubprogram(name: "iscntrl", scope: !744, file: !744, line: 110, type: !87, isLocal: false, isDefinition: false, flags: DIFlagPrototyped, isOptimized: false)
!749 = !DIImportedEntity(tag: DW_TAG_imported_declaration, scope: !2, entity: !750, line: 67)
!750 = !DISubprogram(name: "isdigit", scope: !744, file: !744, line: 111, type: !87, isLocal: false, isDefinition: false, flags: DIFlagPrototyped, isOptimized: false)
!751 = !DIImportedEntity(tag: DW_TAG_imported_declaration, scope: !2, entity: !752, line: 68)
!752 = !DISubprogram(name: "isgraph", scope: !744, file: !744, line: 113, type: !87, isLocal: false, isDefinition: false, flags: DIFlagPrototyped, isOptimized: false)
!753 = !DIImportedEntity(tag: DW_TAG_imported_declaration, scope: !2, entity: !754, line: 69)
!754 = !DISubprogram(name: "islower", scope: !744, file: !744, line: 112, type: !87, isLocal: false, isDefinition: false, flags: DIFlagPrototyped, isOptimized: false)
!755 = !DIImportedEntity(tag: DW_TAG_imported_declaration, scope: !2, entity: !756, line: 70)
!756 = !DISubprogram(name: "isprint", scope: !744, file: !744, line: 114, type: !87, isLocal: false, isDefinition: false, flags: DIFlagPrototyped, isOptimized: false)
!757 = !DIImportedEntity(tag: DW_TAG_imported_declaration, scope: !2, entity: !758, line: 71)
!758 = !DISubprogram(name: "ispunct", scope: !744, file: !744, line: 115, type: !87, isLocal: false, isDefinition: false, flags: DIFlagPrototyped, isOptimized: false)
!759 = !DIImportedEntity(tag: DW_TAG_imported_declaration, scope: !2, entity: !760, line: 72)
!760 = !DISubprogram(name: "isspace", scope: !744, file: !744, line: 116, type: !87, isLocal: false, isDefinition: false, flags: DIFlagPrototyped, isOptimized: false)
!761 = !DIImportedEntity(tag: DW_TAG_imported_declaration, scope: !2, entity: !762, line: 73)
!762 = !DISubprogram(name: "isupper", scope: !744, file: !744, line: 117, type: !87, isLocal: false, isDefinition: false, flags: DIFlagPrototyped, isOptimized: false)
!763 = !DIImportedEntity(tag: DW_TAG_imported_declaration, scope: !2, entity: !764, line: 74)
!764 = !DISubprogram(name: "isxdigit", scope: !744, file: !744, line: 118, type: !87, isLocal: false, isDefinition: false, flags: DIFlagPrototyped, isOptimized: false)
!765 = !DIImportedEntity(tag: DW_TAG_imported_declaration, scope: !2, entity: !766, line: 75)
!766 = !DISubprogram(name: "tolower", scope: !744, file: !744, line: 122, type: !87, isLocal: false, isDefinition: false, flags: DIFlagPrototyped, isOptimized: false)
!767 = !DIImportedEntity(tag: DW_TAG_imported_declaration, scope: !2, entity: !768, line: 76)
!768 = !DISubprogram(name: "toupper", scope: !744, file: !744, line: 125, type: !87, isLocal: false, isDefinition: false, flags: DIFlagPrototyped, isOptimized: false)
!769 = !DIImportedEntity(tag: DW_TAG_imported_declaration, scope: !2, entity: !770, line: 87)
!770 = !DISubprogram(name: "isblank", scope: !744, file: !744, line: 130, type: !87, isLocal: false, isDefinition: false, flags: DIFlagPrototyped, isOptimized: false)
!771 = !DIImportedEntity(tag: DW_TAG_imported_declaration, scope: !233, entity: !772, line: 44)
!772 = !DIDerivedType(tag: DW_TAG_typedef, name: "size_t", scope: !2, file: !3, line: 258, baseType: !132)
!773 = !DIImportedEntity(tag: DW_TAG_imported_declaration, scope: !233, entity: !774, line: 45)
!774 = !DIDerivedType(tag: DW_TAG_typedef, name: "ptrdiff_t", scope: !2, file: !3, line: 259, baseType: !47)
!775 = !DIImportedEntity(tag: DW_TAG_imported_declaration, scope: !2, entity: !776, line: 98)
!776 = !DIDerivedType(tag: DW_TAG_typedef, name: "FILE", file: !777, line: 7, baseType: !352)
!777 = !DIFile(filename: "/usr/include/x86_64-linux-gnu/bits/types/FILE.h", directory: "/home/nsas2020/fuzz/targetProcess/reorder")
!778 = !DIImportedEntity(tag: DW_TAG_imported_declaration, scope: !2, entity: !779, line: 99)
!779 = !DIDerivedType(tag: DW_TAG_typedef, name: "fpos_t", file: !780, line: 84, baseType: !781)
!780 = !DIFile(filename: "/usr/include/stdio.h", directory: "/home/nsas2020/fuzz/targetProcess/reorder")
!781 = !DIDerivedType(tag: DW_TAG_typedef, name: "__fpos_t", file: !782, line: 14, baseType: !783)
!782 = !DIFile(filename: "/usr/include/x86_64-linux-gnu/bits/types/__fpos_t.h", directory: "/home/nsas2020/fuzz/targetProcess/reorder")
!783 = !DICompositeType(tag: DW_TAG_structure_type, name: "_G_fpos_t", file: !782, line: 10, flags: DIFlagFwdDecl, identifier: "_ZTS9_G_fpos_t")
!784 = !DIImportedEntity(tag: DW_TAG_imported_declaration, scope: !2, entity: !785, line: 101)
!785 = !DISubprogram(name: "clearerr", scope: !780, file: !780, line: 757, type: !786, isLocal: false, isDefinition: false, flags: DIFlagPrototyped, isOptimized: false)
!786 = !DISubroutineType(types: !787)
!787 = !{null, !788}
!788 = !DIDerivedType(tag: DW_TAG_pointer_type, baseType: !776, size: 64)
!789 = !DIImportedEntity(tag: DW_TAG_imported_declaration, scope: !2, entity: !790, line: 102)
!790 = !DISubprogram(name: "fclose", scope: !780, file: !780, line: 213, type: !791, isLocal: false, isDefinition: false, flags: DIFlagPrototyped, isOptimized: false)
!791 = !DISubroutineType(types: !792)
!792 = !{!12, !788}
!793 = !DIImportedEntity(tag: DW_TAG_imported_declaration, scope: !2, entity: !794, line: 103)
!794 = !DISubprogram(name: "feof", scope: !780, file: !780, line: 759, type: !791, isLocal: false, isDefinition: false, flags: DIFlagPrototyped, isOptimized: false)
!795 = !DIImportedEntity(tag: DW_TAG_imported_declaration, scope: !2, entity: !796, line: 104)
!796 = !DISubprogram(name: "ferror", scope: !780, file: !780, line: 761, type: !791, isLocal: false, isDefinition: false, flags: DIFlagPrototyped, isOptimized: false)
!797 = !DIImportedEntity(tag: DW_TAG_imported_declaration, scope: !2, entity: !798, line: 105)
!798 = !DISubprogram(name: "fflush", scope: !780, file: !780, line: 218, type: !791, isLocal: false, isDefinition: false, flags: DIFlagPrototyped, isOptimized: false)
!799 = !DIImportedEntity(tag: DW_TAG_imported_declaration, scope: !2, entity: !800, line: 106)
!800 = !DISubprogram(name: "fgetc", scope: !780, file: !780, line: 485, type: !791, isLocal: false, isDefinition: false, flags: DIFlagPrototyped, isOptimized: false)
!801 = !DIImportedEntity(tag: DW_TAG_imported_declaration, scope: !2, entity: !802, line: 107)
!802 = !DISubprogram(name: "fgetpos", scope: !780, file: !780, line: 731, type: !803, isLocal: false, isDefinition: false, flags: DIFlagPrototyped, isOptimized: false)
!803 = !DISubroutineType(types: !804)
!804 = !{!12, !805, !806}
!805 = !DIDerivedType(tag: DW_TAG_restrict_type, baseType: !788)
!806 = !DIDerivedType(tag: DW_TAG_restrict_type, baseType: !807)
!807 = !DIDerivedType(tag: DW_TAG_pointer_type, baseType: !779, size: 64)
!808 = !DIImportedEntity(tag: DW_TAG_imported_declaration, scope: !2, entity: !809, line: 108)
!809 = !DISubprogram(name: "fgets", scope: !780, file: !780, line: 564, type: !810, isLocal: false, isDefinition: false, flags: DIFlagPrototyped, isOptimized: false)
!810 = !DISubroutineType(types: !811)
!811 = !{!157, !224, !12, !805}
!812 = !DIImportedEntity(tag: DW_TAG_imported_declaration, scope: !2, entity: !813, line: 109)
!813 = !DISubprogram(name: "fopen", scope: !780, file: !780, line: 246, type: !814, isLocal: false, isDefinition: false, flags: DIFlagPrototyped, isOptimized: false)
!814 = !DISubroutineType(types: !815)
!815 = !{!788, !181, !181}
!816 = !DIImportedEntity(tag: DW_TAG_imported_declaration, scope: !2, entity: !817, line: 110)
!817 = !DISubprogram(name: "fprintf", scope: !780, file: !780, line: 326, type: !818, isLocal: false, isDefinition: false, flags: DIFlagPrototyped, isOptimized: false)
!818 = !DISubroutineType(types: !819)
!819 = !{!12, !805, !181, null}
!820 = !DIImportedEntity(tag: DW_TAG_imported_declaration, scope: !2, entity: !821, line: 111)
!821 = !DISubprogram(name: "fputc", scope: !780, file: !780, line: 521, type: !822, isLocal: false, isDefinition: false, flags: DIFlagPrototyped, isOptimized: false)
!822 = !DISubroutineType(types: !823)
!823 = !{!12, !12, !788}
!824 = !DIImportedEntity(tag: DW_TAG_imported_declaration, scope: !2, entity: !825, line: 112)
!825 = !DISubprogram(name: "fputs", scope: !780, file: !780, line: 626, type: !826, isLocal: false, isDefinition: false, flags: DIFlagPrototyped, isOptimized: false)
!826 = !DISubroutineType(types: !827)
!827 = !{!12, !181, !805}
!828 = !DIImportedEntity(tag: DW_TAG_imported_declaration, scope: !2, entity: !829, line: 113)
!829 = !DISubprogram(name: "fread", scope: !780, file: !780, line: 646, type: !830, isLocal: false, isDefinition: false, flags: DIFlagPrototyped, isOptimized: false)
!830 = !DISubroutineType(types: !831)
!831 = !{!130, !832, !130, !130, !805}
!832 = !DIDerivedType(tag: DW_TAG_restrict_type, baseType: !48)
!833 = !DIImportedEntity(tag: DW_TAG_imported_declaration, scope: !2, entity: !834, line: 114)
!834 = !DISubprogram(name: "freopen", scope: !780, file: !780, line: 252, type: !835, isLocal: false, isDefinition: false, flags: DIFlagPrototyped, isOptimized: false)
!835 = !DISubroutineType(types: !836)
!836 = !{!788, !181, !181, !805}
!837 = !DIImportedEntity(tag: DW_TAG_imported_declaration, scope: !2, entity: !838, line: 115)
!838 = !DISubprogram(name: "fscanf", linkageName: "__isoc99_fscanf", scope: !780, file: !780, line: 407, type: !818, isLocal: false, isDefinition: false, flags: DIFlagPrototyped, isOptimized: false)
!839 = !DIImportedEntity(tag: DW_TAG_imported_declaration, scope: !2, entity: !840, line: 116)
!840 = !DISubprogram(name: "fseek", scope: !780, file: !780, line: 684, type: !841, isLocal: false, isDefinition: false, flags: DIFlagPrototyped, isOptimized: false)
!841 = !DISubroutineType(types: !842)
!842 = !{!12, !788, !47, !12}
!843 = !DIImportedEntity(tag: DW_TAG_imported_declaration, scope: !2, entity: !844, line: 117)
!844 = !DISubprogram(name: "fsetpos", scope: !780, file: !780, line: 736, type: !845, isLocal: false, isDefinition: false, flags: DIFlagPrototyped, isOptimized: false)
!845 = !DISubroutineType(types: !846)
!846 = !{!12, !788, !847}
!847 = !DIDerivedType(tag: DW_TAG_pointer_type, baseType: !848, size: 64)
!848 = !DIDerivedType(tag: DW_TAG_const_type, baseType: !779)
!849 = !DIImportedEntity(tag: DW_TAG_imported_declaration, scope: !2, entity: !850, line: 118)
!850 = !DISubprogram(name: "ftell", scope: !780, file: !780, line: 689, type: !851, isLocal: false, isDefinition: false, flags: DIFlagPrototyped, isOptimized: false)
!851 = !DISubroutineType(types: !852)
!852 = !{!47, !788}
!853 = !DIImportedEntity(tag: DW_TAG_imported_declaration, scope: !2, entity: !854, line: 119)
!854 = !DISubprogram(name: "fwrite", scope: !780, file: !780, line: 652, type: !855, isLocal: false, isDefinition: false, flags: DIFlagPrototyped, isOptimized: false)
!855 = !DISubroutineType(types: !856)
!856 = !{!130, !857, !130, !130, !805}
!857 = !DIDerivedType(tag: DW_TAG_restrict_type, baseType: !128)
!858 = !DIImportedEntity(tag: DW_TAG_imported_declaration, scope: !2, entity: !859, line: 120)
!859 = !DISubprogram(name: "getc", scope: !780, file: !780, line: 486, type: !791, isLocal: false, isDefinition: false, flags: DIFlagPrototyped, isOptimized: false)
!860 = !DIImportedEntity(tag: DW_TAG_imported_declaration, scope: !2, entity: !861, line: 121)
!861 = !DISubprogram(name: "getchar", scope: !780, file: !780, line: 492, type: !194, isLocal: false, isDefinition: false, flags: DIFlagPrototyped, isOptimized: false)
!862 = !DIImportedEntity(tag: DW_TAG_imported_declaration, scope: !2, entity: !863, line: 124)
!863 = !DISubprogram(name: "gets", scope: !780, file: !780, line: 577, type: !864, isLocal: false, isDefinition: false, flags: DIFlagPrototyped, isOptimized: false)
!864 = !DISubroutineType(types: !865)
!865 = !{!157, !157}
!866 = !DIImportedEntity(tag: DW_TAG_imported_declaration, scope: !2, entity: !867, line: 126)
!867 = !DISubprogram(name: "perror", scope: !780, file: !780, line: 775, type: !868, isLocal: false, isDefinition: false, flags: DIFlagPrototyped, isOptimized: false)
!868 = !DISubroutineType(types: !869)
!869 = !{null, !114}
!870 = !DIImportedEntity(tag: DW_TAG_imported_declaration, scope: !2, entity: !871, line: 127)
!871 = !DISubprogram(name: "printf", scope: !780, file: !780, line: 332, type: !872, isLocal: false, isDefinition: false, flags: DIFlagPrototyped, isOptimized: false)
!872 = !DISubroutineType(types: !873)
!873 = !{!12, !181, null}
!874 = !DIImportedEntity(tag: DW_TAG_imported_declaration, scope: !2, entity: !875, line: 128)
!875 = !DISubprogram(name: "putc", scope: !780, file: !780, line: 522, type: !822, isLocal: false, isDefinition: false, flags: DIFlagPrototyped, isOptimized: false)
!876 = !DIImportedEntity(tag: DW_TAG_imported_declaration, scope: !2, entity: !877, line: 129)
!877 = !DISubprogram(name: "putchar", scope: !780, file: !780, line: 528, type: !87, isLocal: false, isDefinition: false, flags: DIFlagPrototyped, isOptimized: false)
!878 = !DIImportedEntity(tag: DW_TAG_imported_declaration, scope: !2, entity: !879, line: 130)
!879 = !DISubprogram(name: "puts", scope: !780, file: !780, line: 632, type: !118, isLocal: false, isDefinition: false, flags: DIFlagPrototyped, isOptimized: false)
!880 = !DIImportedEntity(tag: DW_TAG_imported_declaration, scope: !2, entity: !881, line: 131)
!881 = !DISubprogram(name: "remove", scope: !780, file: !780, line: 146, type: !118, isLocal: false, isDefinition: false, flags: DIFlagPrototyped, isOptimized: false)
!882 = !DIImportedEntity(tag: DW_TAG_imported_declaration, scope: !2, entity: !883, line: 132)
!883 = !DISubprogram(name: "rename", scope: !780, file: !780, line: 148, type: !884, isLocal: false, isDefinition: false, flags: DIFlagPrototyped, isOptimized: false)
!884 = !DISubroutineType(types: !885)
!885 = !{!12, !114, !114}
!886 = !DIImportedEntity(tag: DW_TAG_imported_declaration, scope: !2, entity: !887, line: 133)
!887 = !DISubprogram(name: "rewind", scope: !780, file: !780, line: 694, type: !786, isLocal: false, isDefinition: false, flags: DIFlagPrototyped, isOptimized: false)
!888 = !DIImportedEntity(tag: DW_TAG_imported_declaration, scope: !2, entity: !889, line: 134)
!889 = !DISubprogram(name: "scanf", linkageName: "__isoc99_scanf", scope: !780, file: !780, line: 410, type: !872, isLocal: false, isDefinition: false, flags: DIFlagPrototyped, isOptimized: false)
!890 = !DIImportedEntity(tag: DW_TAG_imported_declaration, scope: !2, entity: !891, line: 135)
!891 = !DISubprogram(name: "setbuf", scope: !780, file: !780, line: 304, type: !892, isLocal: false, isDefinition: false, flags: DIFlagPrototyped, isOptimized: false)
!892 = !DISubroutineType(types: !893)
!893 = !{null, !805, !224}
!894 = !DIImportedEntity(tag: DW_TAG_imported_declaration, scope: !2, entity: !895, line: 136)
!895 = !DISubprogram(name: "setvbuf", scope: !780, file: !780, line: 308, type: !896, isLocal: false, isDefinition: false, flags: DIFlagPrototyped, isOptimized: false)
!896 = !DISubroutineType(types: !897)
!897 = !{!12, !805, !224, !12, !130}
!898 = !DIImportedEntity(tag: DW_TAG_imported_declaration, scope: !2, entity: !899, line: 137)
!899 = !DISubprogram(name: "sprintf", scope: !780, file: !780, line: 334, type: !900, isLocal: false, isDefinition: false, flags: DIFlagPrototyped, isOptimized: false)
!900 = !DISubroutineType(types: !901)
!901 = !{!12, !224, !181, null}
!902 = !DIImportedEntity(tag: DW_TAG_imported_declaration, scope: !2, entity: !903, line: 138)
!903 = !DISubprogram(name: "sscanf", linkageName: "__isoc99_sscanf", scope: !780, file: !780, line: 412, type: !904, isLocal: false, isDefinition: false, flags: DIFlagPrototyped, isOptimized: false)
!904 = !DISubroutineType(types: !905)
!905 = !{!12, !181, !181, null}
!906 = !DIImportedEntity(tag: DW_TAG_imported_declaration, scope: !2, entity: !907, line: 139)
!907 = !DISubprogram(name: "tmpfile", scope: !780, file: !780, line: 173, type: !908, isLocal: false, isDefinition: false, flags: DIFlagPrototyped, isOptimized: false)
!908 = !DISubroutineType(types: !909)
!909 = !{!788}
!910 = !DIImportedEntity(tag: DW_TAG_imported_declaration, scope: !2, entity: !911, line: 141)
!911 = !DISubprogram(name: "tmpnam", scope: !780, file: !780, line: 187, type: !864, isLocal: false, isDefinition: false, flags: DIFlagPrototyped, isOptimized: false)
!912 = !DIImportedEntity(tag: DW_TAG_imported_declaration, scope: !2, entity: !913, line: 143)
!913 = !DISubprogram(name: "ungetc", scope: !780, file: !780, line: 639, type: !822, isLocal: false, isDefinition: false, flags: DIFlagPrototyped, isOptimized: false)
!914 = !DIImportedEntity(tag: DW_TAG_imported_declaration, scope: !2, entity: !915, line: 144)
!915 = !DISubprogram(name: "vfprintf", scope: !780, file: !780, line: 341, type: !916, isLocal: false, isDefinition: false, flags: DIFlagPrototyped, isOptimized: false)
!916 = !DISubroutineType(types: !917)
!917 = !{!12, !805, !181, !427}
!918 = !DIImportedEntity(tag: DW_TAG_imported_declaration, scope: !2, entity: !919, line: 145)
!919 = !DISubprogram(name: "vprintf", scope: !780, file: !780, line: 347, type: !920, isLocal: false, isDefinition: false, flags: DIFlagPrototyped, isOptimized: false)
!920 = !DISubroutineType(types: !921)
!921 = !{!12, !181, !427}
!922 = !DIImportedEntity(tag: DW_TAG_imported_declaration, scope: !2, entity: !923, line: 146)
!923 = !DISubprogram(name: "vsprintf", scope: !780, file: !780, line: 349, type: !924, isLocal: false, isDefinition: false, flags: DIFlagPrototyped, isOptimized: false)
!924 = !DISubroutineType(types: !925)
!925 = !{!12, !224, !181, !427}
!926 = !DIImportedEntity(tag: DW_TAG_imported_declaration, scope: !233, entity: !927, line: 175)
!927 = !DISubprogram(name: "snprintf", scope: !780, file: !780, line: 354, type: !928, isLocal: false, isDefinition: false, flags: DIFlagPrototyped, isOptimized: false)
!928 = !DISubroutineType(types: !929)
!929 = !{!12, !224, !130, !181, null}
!930 = !DIImportedEntity(tag: DW_TAG_imported_declaration, scope: !233, entity: !931, line: 176)
!931 = !DISubprogram(name: "vfscanf", linkageName: "__isoc99_vfscanf", scope: !780, file: !780, line: 451, type: !916, isLocal: false, isDefinition: false, flags: DIFlagPrototyped, isOptimized: false)
!932 = !DIImportedEntity(tag: DW_TAG_imported_declaration, scope: !233, entity: !933, line: 177)
!933 = !DISubprogram(name: "vscanf", linkageName: "__isoc99_vscanf", scope: !780, file: !780, line: 456, type: !920, isLocal: false, isDefinition: false, flags: DIFlagPrototyped, isOptimized: false)
!934 = !DIImportedEntity(tag: DW_TAG_imported_declaration, scope: !233, entity: !935, line: 178)
!935 = !DISubprogram(name: "vsnprintf", scope: !780, file: !780, line: 358, type: !936, isLocal: false, isDefinition: false, flags: DIFlagPrototyped, isOptimized: false)
!936 = !DISubroutineType(types: !937)
!937 = !{!12, !224, !130, !181, !427}
!938 = !DIImportedEntity(tag: DW_TAG_imported_declaration, scope: !233, entity: !939, line: 179)
!939 = !DISubprogram(name: "vsscanf", linkageName: "__isoc99_vsscanf", scope: !780, file: !780, line: 459, type: !940, isLocal: false, isDefinition: false, flags: DIFlagPrototyped, isOptimized: false)
!940 = !DISubroutineType(types: !941)
!941 = !{!12, !181, !181, !427}
!942 = !DIImportedEntity(tag: DW_TAG_imported_declaration, scope: !2, entity: !927, line: 185)
!943 = !DIImportedEntity(tag: DW_TAG_imported_declaration, scope: !2, entity: !931, line: 186)
!944 = !DIImportedEntity(tag: DW_TAG_imported_declaration, scope: !2, entity: !933, line: 187)
!945 = !DIImportedEntity(tag: DW_TAG_imported_declaration, scope: !2, entity: !935, line: 188)
!946 = !DIImportedEntity(tag: DW_TAG_imported_declaration, scope: !2, entity: !939, line: 189)
!947 = !DIImportedEntity(tag: DW_TAG_imported_declaration, scope: !2, entity: !948, line: 82)
!948 = !DIDerivedType(tag: DW_TAG_typedef, name: "wctrans_t", file: !949, line: 48, baseType: !950)
!949 = !DIFile(filename: "/usr/include/wctype.h", directory: "/home/nsas2020/fuzz/targetProcess/reorder")
!950 = !DIDerivedType(tag: DW_TAG_pointer_type, baseType: !951, size: 64)
!951 = !DIDerivedType(tag: DW_TAG_const_type, baseType: !660)
!952 = !DIImportedEntity(tag: DW_TAG_imported_declaration, scope: !2, entity: !953, line: 83)
!953 = !DIDerivedType(tag: DW_TAG_typedef, name: "wctype_t", file: !954, line: 38, baseType: !132)
!954 = !DIFile(filename: "/usr/include/x86_64-linux-gnu/bits/wctype-wchar.h", directory: "/home/nsas2020/fuzz/targetProcess/reorder")
!955 = !DIImportedEntity(tag: DW_TAG_imported_declaration, scope: !2, entity: !338, line: 84)
!956 = !DIImportedEntity(tag: DW_TAG_imported_declaration, scope: !2, entity: !957, line: 86)
!957 = !DISubprogram(name: "iswalnum", scope: !954, file: !954, line: 95, type: !529, isLocal: false, isDefinition: false, flags: DIFlagPrototyped, isOptimized: false)
!958 = !DIImportedEntity(tag: DW_TAG_imported_declaration, scope: !2, entity: !959, line: 87)
!959 = !DISubprogram(name: "iswalpha", scope: !954, file: !954, line: 101, type: !529, isLocal: false, isDefinition: false, flags: DIFlagPrototyped, isOptimized: false)
!960 = !DIImportedEntity(tag: DW_TAG_imported_declaration, scope: !2, entity: !961, line: 89)
!961 = !DISubprogram(name: "iswblank", scope: !954, file: !954, line: 146, type: !529, isLocal: false, isDefinition: false, flags: DIFlagPrototyped, isOptimized: false)
!962 = !DIImportedEntity(tag: DW_TAG_imported_declaration, scope: !2, entity: !963, line: 91)
!963 = !DISubprogram(name: "iswcntrl", scope: !954, file: !954, line: 104, type: !529, isLocal: false, isDefinition: false, flags: DIFlagPrototyped, isOptimized: false)
!964 = !DIImportedEntity(tag: DW_TAG_imported_declaration, scope: !2, entity: !965, line: 92)
!965 = !DISubprogram(name: "iswctype", scope: !954, file: !954, line: 159, type: !966, isLocal: false, isDefinition: false, flags: DIFlagPrototyped, isOptimized: false)
!966 = !DISubroutineType(types: !967)
!967 = !{!12, !338, !953}
!968 = !DIImportedEntity(tag: DW_TAG_imported_declaration, scope: !2, entity: !969, line: 93)
!969 = !DISubprogram(name: "iswdigit", scope: !954, file: !954, line: 108, type: !529, isLocal: false, isDefinition: false, flags: DIFlagPrototyped, isOptimized: false)
!970 = !DIImportedEntity(tag: DW_TAG_imported_declaration, scope: !2, entity: !971, line: 94)
!971 = !DISubprogram(name: "iswgraph", scope: !954, file: !954, line: 112, type: !529, isLocal: false, isDefinition: false, flags: DIFlagPrototyped, isOptimized: false)
!972 = !DIImportedEntity(tag: DW_TAG_imported_declaration, scope: !2, entity: !973, line: 95)
!973 = !DISubprogram(name: "iswlower", scope: !954, file: !954, line: 117, type: !529, isLocal: false, isDefinition: false, flags: DIFlagPrototyped, isOptimized: false)
!974 = !DIImportedEntity(tag: DW_TAG_imported_declaration, scope: !2, entity: !975, line: 96)
!975 = !DISubprogram(name: "iswprint", scope: !954, file: !954, line: 120, type: !529, isLocal: false, isDefinition: false, flags: DIFlagPrototyped, isOptimized: false)
!976 = !DIImportedEntity(tag: DW_TAG_imported_declaration, scope: !2, entity: !977, line: 97)
!977 = !DISubprogram(name: "iswpunct", scope: !954, file: !954, line: 125, type: !529, isLocal: false, isDefinition: false, flags: DIFlagPrototyped, isOptimized: false)
!978 = !DIImportedEntity(tag: DW_TAG_imported_declaration, scope: !2, entity: !979, line: 98)
!979 = !DISubprogram(name: "iswspace", scope: !954, file: !954, line: 130, type: !529, isLocal: false, isDefinition: false, flags: DIFlagPrototyped, isOptimized: false)
!980 = !DIImportedEntity(tag: DW_TAG_imported_declaration, scope: !2, entity: !981, line: 99)
!981 = !DISubprogram(name: "iswupper", scope: !954, file: !954, line: 135, type: !529, isLocal: false, isDefinition: false, flags: DIFlagPrototyped, isOptimized: false)
!982 = !DIImportedEntity(tag: DW_TAG_imported_declaration, scope: !2, entity: !983, line: 100)
!983 = !DISubprogram(name: "iswxdigit", scope: !954, file: !954, line: 140, type: !529, isLocal: false, isDefinition: false, flags: DIFlagPrototyped, isOptimized: false)
!984 = !DIImportedEntity(tag: DW_TAG_imported_declaration, scope: !2, entity: !985, line: 101)
!985 = !DISubprogram(name: "towctrans", scope: !949, file: !949, line: 55, type: !986, isLocal: false, isDefinition: false, flags: DIFlagPrototyped, isOptimized: false)
!986 = !DISubroutineType(types: !987)
!987 = !{!338, !338, !948}
!988 = !DIImportedEntity(tag: DW_TAG_imported_declaration, scope: !2, entity: !989, line: 102)
!989 = !DISubprogram(name: "towlower", scope: !954, file: !954, line: 166, type: !990, isLocal: false, isDefinition: false, flags: DIFlagPrototyped, isOptimized: false)
!990 = !DISubroutineType(types: !991)
!991 = !{!338, !338}
!992 = !DIImportedEntity(tag: DW_TAG_imported_declaration, scope: !2, entity: !993, line: 103)
!993 = !DISubprogram(name: "towupper", scope: !954, file: !954, line: 169, type: !990, isLocal: false, isDefinition: false, flags: DIFlagPrototyped, isOptimized: false)
!994 = !DIImportedEntity(tag: DW_TAG_imported_declaration, scope: !2, entity: !995, line: 104)
!995 = !DISubprogram(name: "wctrans", scope: !949, file: !949, line: 52, type: !996, isLocal: false, isDefinition: false, flags: DIFlagPrototyped, isOptimized: false)
!996 = !DISubroutineType(types: !997)
!997 = !{!948, !114}
!998 = !DIImportedEntity(tag: DW_TAG_imported_declaration, scope: !2, entity: !999, line: 105)
!999 = !DISubprogram(name: "wctype", scope: !954, file: !954, line: 155, type: !1000, isLocal: false, isDefinition: false, flags: DIFlagPrototyped, isOptimized: false)
!1000 = !DISubroutineType(types: !1001)
!1001 = !{!953, !114}
!1002 = !DIDerivedType(tag: DW_TAG_pointer_type, baseType: !1003, size: 64)
!1003 = distinct !DICompositeType(tag: DW_TAG_structure_type, name: "PackageEntryTable", file: !32, line: 17, size: 960, elements: !1004, identifier: "_ZTS17PackageEntryTable")
!1004 = !{!1005, !1012, !1013}
!1005 = !DIDerivedType(tag: DW_TAG_member, name: "buckets", scope: !1003, file: !32, line: 18, baseType: !1006, size: 640)
!1006 = !DICompositeType(tag: DW_TAG_array_type, baseType: !1007, size: 640, elements: !1010)
!1007 = !DIDerivedType(tag: DW_TAG_pointer_type, baseType: !1008, size: 64)
!1008 = !DIDerivedType(tag: DW_TAG_typedef, name: "PackageEntry", file: !32, line: 15, baseType: !1009)
!1009 = !DICompositeType(tag: DW_TAG_structure_type, name: "PackageEntry", file: !32, line: 12, flags: DIFlagFwdDecl, identifier: "_ZTS12PackageEntry")
!1010 = !{!1011}
!1011 = !DISubrange(count: 10)
!1012 = !DIDerivedType(tag: DW_TAG_member, name: "lock", scope: !1003, file: !32, line: 19, baseType: !52, size: 320, offset: 640)
!1013 = !DISubprogram(name: "PackageEntryTable", scope: !1003, file: !32, line: 21, type: !1014, isLocal: false, isDefinition: false, scopeLine: 21, flags: DIFlagPrototyped, isOptimized: false)
!1014 = !DISubroutineType(types: !1015)
!1015 = !{null, !1016}
!1016 = !DIDerivedType(tag: DW_TAG_pointer_type, baseType: !1003, size: 64, flags: DIFlagArtificial | DIFlagObjectPointer)
!1017 = !{i32 2, !"Dwarf Version", i32 4}
!1018 = !{i32 2, !"Debug Info Version", i32 3}
!1019 = !{!"clang version 4.0.0 (tags/RELEASE_400/final)"}
!1020 = distinct !DISubprogram(name: "__cxx_global_var_init", scope: !4, file: !4, line: 74, type: !100, isLocal: true, isDefinition: true, scopeLine: 74, flags: DIFlagPrototyped, isOptimized: false, unit: !31, variables: !1021)
!1021 = !{}
!1022 = !DILocation(line: 74, column: 25, scope: !1020)
!1023 = !DILocation(line: 74, column: 25, scope: !1024)
!1024 = !DILexicalBlockFile(scope: !1020, file: !4, discriminator: 1)
!1025 = distinct !DISubprogram(name: "getOrCreatePackageEntryTable", linkageName: "_Z28getOrCreatePackageEntryTablev", scope: !32, file: !32, line: 33, type: !1026, isLocal: false, isDefinition: true, scopeLine: 33, flags: DIFlagPrototyped, isOptimized: false, unit: !31, variables: !1021)
!1026 = !DISubroutineType(types: !1027)
!1027 = !{!1002}
!1028 = !DILocation(line: 37, column: 9, scope: !1029)
!1029 = distinct !DILexicalBlock(scope: !1025, file: !32, line: 37, column: 9)
!1030 = !DILocation(line: 37, column: 28, scope: !1029)
!1031 = !DILocation(line: 37, column: 9, scope: !1025)
!1032 = !DILocation(line: 38, column: 9, scope: !1033)
!1033 = distinct !DILexicalBlock(scope: !1029, file: !32, line: 37, column: 40)
!1034 = !DILocation(line: 39, column: 13, scope: !1035)
!1035 = distinct !DILexicalBlock(scope: !1033, file: !32, line: 39, column: 13)
!1036 = !DILocation(line: 39, column: 32, scope: !1035)
!1037 = !DILocation(line: 39, column: 13, scope: !1033)
!1038 = !DILocation(line: 40, column: 34, scope: !1039)
!1039 = distinct !DILexicalBlock(scope: !1035, file: !32, line: 39, column: 44)
!1040 = !DILocation(line: 40, column: 38, scope: !1039)
!1041 = !DILocation(line: 40, column: 32, scope: !1042)
!1042 = !DILexicalBlockFile(scope: !1039, file: !32, discriminator: 1)
!1043 = !DILocation(line: 43, column: 9, scope: !1039)
!1044 = !DILocation(line: 47, column: 1, scope: !1039)
!1045 = !DILocation(line: 40, column: 34, scope: !1046)
!1046 = !DILexicalBlockFile(scope: !1039, file: !32, discriminator: 2)
!1047 = !DILocation(line: 44, column: 9, scope: !1033)
!1048 = !DILocation(line: 45, column: 5, scope: !1033)
!1049 = !DILocation(line: 46, column: 12, scope: !1025)
!1050 = !DILocation(line: 46, column: 5, scope: !1025)
!1051 = !DILocation(line: 40, column: 34, scope: !1052)
!1052 = !DILexicalBlockFile(scope: !1039, file: !32, discriminator: 3)
!1053 = distinct !DISubprogram(name: "PackageEntryTable", linkageName: "_ZN17PackageEntryTableC2Ev", scope: !1003, file: !32, line: 21, type: !1014, isLocal: false, isDefinition: true, scopeLine: 21, flags: DIFlagPrototyped, isOptimized: false, unit: !31, declaration: !1013, variables: !1021)
!1054 = !DILocalVariable(name: "this", arg: 1, scope: !1053, type: !1002, flags: DIFlagArtificial | DIFlagObjectPointer)
!1055 = !DIExpression()
!1056 = !DILocation(line: 0, scope: !1053)
!1057 = !DILocation(line: 18, column: 19, scope: !1053)
!1058 = !DILocation(line: 18, column: 52, scope: !1053)
!1059 = !DILocation(line: 18, column: 52, scope: !1060)
!1060 = !DILexicalBlockFile(scope: !1053, file: !32, discriminator: 1)
!1061 = !DILocation(line: 19, column: 21, scope: !1053)
!1062 = !DILocation(line: 19, column: 28, scope: !1053)
!1063 = !DILocalVariable(name: "i", scope: !1064, file: !32, line: 22, type: !12)
!1064 = distinct !DILexicalBlock(scope: !1065, file: !32, line: 22, column: 9)
!1065 = distinct !DILexicalBlock(scope: !1053, file: !32, line: 21, column: 25)
!1066 = !DILocation(line: 22, column: 18, scope: !1064)
!1067 = !DILocation(line: 22, column: 14, scope: !1064)
!1068 = !DILocation(line: 22, column: 25, scope: !1069)
!1069 = !DILexicalBlockFile(scope: !1070, file: !32, discriminator: 1)
!1070 = distinct !DILexicalBlock(scope: !1064, file: !32, line: 22, column: 9)
!1071 = !DILocation(line: 22, column: 27, scope: !1069)
!1072 = !DILocation(line: 22, column: 9, scope: !1073)
!1073 = !DILexicalBlockFile(scope: !1064, file: !32, discriminator: 1)
!1074 = !DILocation(line: 23, column: 13, scope: !1075)
!1075 = distinct !DILexicalBlock(scope: !1070, file: !32, line: 22, column: 60)
!1076 = !DILocation(line: 23, column: 21, scope: !1075)
!1077 = !DILocation(line: 23, column: 24, scope: !1075)
!1078 = !DILocation(line: 24, column: 9, scope: !1075)
!1079 = !DILocation(line: 22, column: 55, scope: !1080)
!1080 = !DILexicalBlockFile(scope: !1070, file: !32, discriminator: 2)
!1081 = !DILocation(line: 22, column: 9, scope: !1080)
!1082 = distinct !{!1082, !1083, !1084}
!1083 = !DILocation(line: 22, column: 9, scope: !1064)
!1084 = !DILocation(line: 24, column: 9, scope: !1064)
!1085 = !DILocation(line: 25, column: 5, scope: !1053)
!1086 = distinct !DISubprogram(name: "threadRoutine", linkageName: "_Z13threadRoutinePv", scope: !32, file: !32, line: 51, type: !1087, isLocal: false, isDefinition: true, scopeLine: 51, flags: DIFlagPrototyped, isOptimized: false, unit: !31, variables: !1021)
!1087 = !DISubroutineType(types: !1088)
!1088 = !{!48, !48}
!1089 = !DILocalVariable(name: "arg", arg: 1, scope: !1086, file: !32, line: 51, type: !48)
!1090 = !DILocation(line: 51, column: 27, scope: !1086)
!1091 = !DILocalVariable(name: "table", scope: !1086, file: !32, line: 53, type: !1002)
!1092 = !DILocation(line: 53, column: 24, scope: !1086)
!1093 = !DILocation(line: 53, column: 32, scope: !1086)
!1094 = !DILocation(line: 54, column: 83, scope: !1086)
!1095 = !DILocation(line: 54, column: 106, scope: !1086)
!1096 = !DILocation(line: 54, column: 5, scope: !1097)
!1097 = !DILexicalBlockFile(scope: !1086, file: !32, discriminator: 1)
!1098 = !DILocation(line: 56, column: 5, scope: !1086)
!1099 = distinct !DISubprogram(name: "main", scope: !32, file: !32, line: 60, type: !194, isLocal: false, isDefinition: true, scopeLine: 60, flags: DIFlagPrototyped, isOptimized: false, unit: !31, variables: !1021)
!1100 = !DILocalVariable(name: "NUM_THREADS", scope: !1099, file: !32, line: 61, type: !1101)
!1101 = !DIDerivedType(tag: DW_TAG_const_type, baseType: !12)
!1102 = !DILocation(line: 61, column: 15, scope: !1099)
!1103 = !DILocalVariable(name: "threads", scope: !1099, file: !32, line: 62, type: !1104)
!1104 = !DICompositeType(tag: DW_TAG_array_type, baseType: !1105, size: 320, elements: !1106)
!1105 = !DIDerivedType(tag: DW_TAG_typedef, name: "pthread_t", file: !53, line: 27, baseType: !132)
!1106 = !{!1107}
!1107 = !DISubrange(count: 5)
!1108 = !DILocation(line: 62, column: 15, scope: !1099)
!1109 = !DILocalVariable(name: "__range", scope: !1110, type: !1111, flags: DIFlagArtificial)
!1110 = distinct !DILexicalBlock(scope: !1099, file: !32, line: 65, column: 5)
!1111 = !DIDerivedType(tag: DW_TAG_reference_type, baseType: !1112, size: 64)
!1112 = !DICompositeType(tag: DW_TAG_array_type, baseType: !132, size: 320, elements: !1106)
!1113 = !DILocation(line: 0, scope: !1110)
!1114 = !DILocation(line: 65, column: 35, scope: !1110)
!1115 = !DILocalVariable(name: "__begin", scope: !1110, type: !1116, flags: DIFlagArtificial)
!1116 = !DIDerivedType(tag: DW_TAG_pointer_type, baseType: !132, size: 64)
!1117 = !DILocation(line: 65, column: 33, scope: !1110)
!1118 = !DILocalVariable(name: "__end", scope: !1110, type: !1116, flags: DIFlagArtificial)
!1119 = !DILocation(line: 65, column: 33, scope: !1120)
!1120 = !DILexicalBlockFile(scope: !1110, file: !32, discriminator: 1)
!1121 = !DILocalVariable(name: "thread", scope: !1122, file: !32, line: 65, type: !1123)
!1122 = distinct !DILexicalBlock(scope: !1110, file: !32, line: 65, column: 5)
!1123 = !DIDerivedType(tag: DW_TAG_reference_type, baseType: !132, size: 64)
!1124 = !DILocation(line: 65, column: 26, scope: !1122)
!1125 = !DILocation(line: 65, column: 33, scope: !1126)
!1126 = !DILexicalBlockFile(scope: !1122, file: !32, discriminator: 2)
!1127 = !DILocation(line: 65, column: 26, scope: !1126)
!1128 = !DILocation(line: 66, column: 29, scope: !1129)
!1129 = distinct !DILexicalBlock(scope: !1130, file: !32, line: 66, column: 13)
!1130 = distinct !DILexicalBlock(scope: !1122, file: !32, line: 65, column: 44)
!1131 = !DILocation(line: 66, column: 13, scope: !1129)
!1132 = !DILocation(line: 66, column: 64, scope: !1129)
!1133 = !DILocation(line: 66, column: 13, scope: !1130)
!1134 = !DILocation(line: 67, column: 13, scope: !1135)
!1135 = distinct !DILexicalBlock(scope: !1129, file: !32, line: 66, column: 70)
!1136 = !DILocation(line: 68, column: 13, scope: !1135)
!1137 = !DILocation(line: 65, column: 5, scope: !1138)
!1138 = !DILexicalBlockFile(scope: !1110, file: !32, discriminator: 3)
!1139 = !DILocation(line: 65, column: 33, scope: !1140)
!1140 = !DILexicalBlockFile(scope: !1110, file: !32, discriminator: 4)
!1141 = distinct !{!1141, !1142, !1143}
!1142 = !DILocation(line: 65, column: 5, scope: !1110)
!1143 = !DILocation(line: 70, column: 5, scope: !1110)
!1144 = !DILocalVariable(name: "__range", scope: !1145, type: !1111, flags: DIFlagArtificial)
!1145 = distinct !DILexicalBlock(scope: !1099, file: !32, line: 73, column: 5)
!1146 = !DILocation(line: 0, scope: !1145)
!1147 = !DILocation(line: 73, column: 33, scope: !1145)
!1148 = !DILocalVariable(name: "__begin", scope: !1145, type: !1116, flags: DIFlagArtificial)
!1149 = !DILocation(line: 73, column: 31, scope: !1145)
!1150 = !DILocalVariable(name: "__end", scope: !1145, type: !1116, flags: DIFlagArtificial)
!1151 = !DILocation(line: 73, column: 31, scope: !1152)
!1152 = !DILexicalBlockFile(scope: !1145, file: !32, discriminator: 1)
!1153 = !DILocalVariable(name: "thread", scope: !1154, file: !32, line: 73, type: !132)
!1154 = distinct !DILexicalBlock(scope: !1145, file: !32, line: 73, column: 5)
!1155 = !DILocation(line: 73, column: 24, scope: !1154)
!1156 = !DILocation(line: 73, column: 31, scope: !1157)
!1157 = !DILexicalBlockFile(scope: !1154, file: !32, discriminator: 2)
!1158 = !DILocation(line: 73, column: 24, scope: !1157)
!1159 = !DILocation(line: 74, column: 22, scope: !1160)
!1160 = distinct !DILexicalBlock(scope: !1154, file: !32, line: 73, column: 42)
!1161 = !DILocation(line: 74, column: 9, scope: !1160)
!1162 = !DILocation(line: 73, column: 5, scope: !1163)
!1163 = !DILexicalBlockFile(scope: !1145, file: !32, discriminator: 2)
!1164 = !DILocation(line: 73, column: 31, scope: !1165)
!1165 = !DILexicalBlockFile(scope: !1145, file: !32, discriminator: 3)
!1166 = distinct !{!1166, !1167, !1168}
!1167 = !DILocation(line: 73, column: 5, scope: !1145)
!1168 = !DILocation(line: 75, column: 5, scope: !1145)
!1169 = !DILocation(line: 76, column: 1, scope: !1099)
!1170 = distinct !DISubprogram(linkageName: "_GLOBAL__sub_I_19_DragonWell8Easy.cpp", scope: !32, file: !32, type: !1171, isLocal: true, isDefinition: true, flags: DIFlagArtificial, isOptimized: false, unit: !31, variables: !1021)
!1171 = !DISubroutineType(types: !1021)
!1172 = !DILocation(line: 0, scope: !1170)
