	.arch armv8-a
	.file	"0-datarace.cpp"
	.text
.Ltext0:
	.global	data
	.bss
	.align	2
	.type	data, %object
	.size	data, 4
data:
	.zero	4
	.global	flag
	.align	2
	.type	flag, %object
	.size	flag, 4
flag:
	.zero	4
	.global	str
	.align	3
	.type	str, %object
	.size	str, 50
str:
	.zero	50
	.text
	.align	2
	.global	_Z13writer_threadPv
	.type	_Z13writer_threadPv, %function
_Z13writer_threadPv:
.LFB9:
	.file 1 "0-datarace.cpp"
	.loc 1 21 33
	.cfi_startproc
	sub	sp, sp, #16
	.cfi_def_cfa_offset 16
	str	x0, [sp, 8]
	.loc 1 22 10
	adrp	x0, data
	add	x0, x0, :lo12:data
	mov	w1, 42
	str	w1, [x0]
	.loc 1 23 10
	adrp	x0, flag
	add	x0, x0, :lo12:flag
	mov	w1, 1
	str	w1, [x0]
	.loc 1 24 11
	mov	x0, 0
	.loc 1 25 1
	add	sp, sp, 16
	.cfi_def_cfa_offset 0
	ret
	.cfi_endproc
.LFE9:
	.size	_Z13writer_threadPv, .-_Z13writer_threadPv
	.section	.rodata
	.align	3
.LC0:
	.string	"Data happen %d"
	.align	3
.LC1:
	.string	"void* reader_thread(void*)"
	.align	3
.LC2:
	.string	"0-datarace.cpp"
	.align	3
.LC3:
	.string	"data == 42"
	.text
	.align	2
	.global	_Z13reader_threadPv
	.type	_Z13reader_threadPv, %function
_Z13reader_threadPv:
.LFB10:
	.loc 1 28 33
	.cfi_startproc
	stp	x29, x30, [sp, -32]!
	.cfi_def_cfa_offset 32
	.cfi_offset 29, -32
	.cfi_offset 30, -24
	mov	x29, sp
	str	x0, [sp, 24]
	.loc 1 31 14
	adrp	x0, flag
	add	x0, x0, :lo12:flag
	ldr	w0, [x0]
	.loc 1 31 5
	cmp	w0, 1
	bne	.L4
	.loc 1 32 15
	adrp	x0, data
	add	x0, x0, :lo12:data
	ldr	w0, [x0]
	mov	w2, w0
	adrp	x0, .LC0
	add	x1, x0, :lo12:.LC0
	adrp	x0, str
	add	x0, x0, :lo12:str
	bl	printf
	.loc 1 33 13
	adrp	x0, data
	add	x0, x0, :lo12:data
	ldr	w0, [x0]
	.loc 1 33 10
	cmp	w0, 42
	beq	.L4
	.loc 1 33 37 discriminator 1
	adrp	x0, .LC1
	add	x3, x0, :lo12:.LC1
	mov	w2, 33
	adrp	x0, .LC2
	add	x1, x0, :lo12:.LC2
	adrp	x0, .LC3
	add	x0, x0, :lo12:.LC3
	bl	__assert_fail
.L4:
	.loc 1 35 11
	mov	x0, 0
	.loc 1 36 1
	ldp	x29, x30, [sp], 32
	.cfi_restore 30
	.cfi_restore 29
	.cfi_def_cfa_offset 0
	ret
	.cfi_endproc
.LFE10:
	.size	_Z13reader_threadPv, .-_Z13reader_threadPv
	.section	.rodata
	.align	3
.LC4:
	.string	"Data happen 0"
	.text
	.align	2
	.global	main
	.type	main, %function
main:
.LFB11:
	.loc 1 38 12
	.cfi_startproc
	stp	x29, x30, [sp, -48]!
	.cfi_def_cfa_offset 48
	.cfi_offset 29, -48
	.cfi_offset 30, -40
	mov	x29, sp
	.loc 1 38 12
	adrp	x0, :got:__stack_chk_guard
	ldr	x0, [x0, #:got_lo12:__stack_chk_guard]
	ldr	x1, [x0]
	str	x1, [sp, 40]
	mov	x1,0
	.loc 1 40 9
	str	wzr, [sp, 20]
	.loc 1 43 19
	add	x4, sp, 24
	mov	x3, 0
	adrp	x0, _Z13writer_threadPv
	add	x2, x0, :lo12:_Z13writer_threadPv
	mov	x1, 0
	mov	x0, x4
	bl	pthread_create
	.loc 1 44 19
	add	x4, sp, 32
	mov	x3, 0
	adrp	x0, _Z13reader_threadPv
	add	x2, x0, :lo12:_Z13reader_threadPv
	mov	x1, 0
	mov	x0, x4
	bl	pthread_create
	.loc 1 47 17
	ldr	x0, [sp, 24]
	mov	x1, 0
	bl	pthread_join
	.loc 1 48 17
	ldr	x0, [sp, 32]
	mov	x1, 0
	bl	pthread_join
	.loc 1 50 15
	adrp	x0, .LC4
	add	x1, x0, :lo12:.LC4
	adrp	x0, str
	add	x0, x0, :lo12:str
	bl	strcmp
	.loc 1 50 5
	cmp	w0, 0
	bne	.L7
	.loc 1 51 12
	ldr	w0, [sp, 20]
	add	w0, w0, 1
	str	w0, [sp, 20]
	.loc 1 52 15
	adrp	x0, str
	add	x0, x0, :lo12:str
	bl	puts
.L7:
	.loc 1 54 10
	adrp	x0, data
	add	x0, x0, :lo12:data
	str	wzr, [x0]
	.loc 1 55 11
	mov	x2, 50
	mov	w1, 0
	adrp	x0, str
	add	x0, x0, :lo12:str
	bl	memset
	.loc 1 56 12
	mov	w0, 0
	mov	w1, w0
	.loc 1 57 1
	adrp	x0, :got:__stack_chk_guard
	ldr	x0, [x0, #:got_lo12:__stack_chk_guard]
	ldr	x2, [sp, 40]
	ldr	x3, [x0]
	subs	x2, x2, x3
	mov	x3, 0
	beq	.L9
	bl	__stack_chk_fail
.L9:
	mov	w0, w1
	ldp	x29, x30, [sp], 48
	.cfi_restore 30
	.cfi_restore 29
	.cfi_def_cfa_offset 0
	ret
	.cfi_endproc
.LFE11:
	.size	main, .-main
.Letext0:
	.file 2 "/usr/lib/gcc-cross/aarch64-linux-gnu/9/include/stddef.h"
	.file 3 "/usr/aarch64-linux-gnu/include/bits/types.h"
	.file 4 "/usr/aarch64-linux-gnu/include/bits/types/struct_FILE.h"
	.file 5 "/usr/aarch64-linux-gnu/include/bits/types/FILE.h"
	.file 6 "/usr/aarch64-linux-gnu/include/stdio.h"
	.file 7 "/usr/aarch64-linux-gnu/include/bits/sys_errlist.h"
	.file 8 "/usr/aarch64-linux-gnu/include/time.h"
	.file 9 "/usr/aarch64-linux-gnu/include/bits/pthreadtypes.h"
	.file 10 "/usr/aarch64-linux-gnu/include/pthread.h"
	.section	.note.GNU-stack,"",@progbits
