	.arch armv8-a
	.file	"2-DPDK.c"
	.text
.Ltext0:
	.global	global_lock
	.bss
	.align	3
	.type	global_lock, %object
	.size	global_lock, 8
global_lock:
	.zero	8
	.comm	global_node1,16,8
	.comm	global_node2,16,8
	.section	.rodata
	.align	3
.LC0:
	.string	"Thread %d: 1: W locked.\n"
	.align	3
.LC1:
	.string	"Thread %d: 2: W.next \n"
	.text
	.align	2
	.type	rte_mcslock_lock, %function
rte_mcslock_lock:
.LFB0:
	.file 1 "2-DPDK.c"
	.loc 1 44 1
	.cfi_startproc
	stp	x29, x30, [sp, -192]!
	.cfi_def_cfa_offset 192
	.cfi_offset 29, -192
	.cfi_offset 30, -184
	mov	x29, sp
	str	x0, [sp, 40]
	str	x1, [sp, 32]
	str	w2, [sp, 28]
	.loc 1 48 5
	ldr	w1, [sp, 28]
	adrp	x0, .LC0
	add	x0, x0, :lo12:.LC0
	bl	printf
.LBB2:
	.loc 1 49 5
	add	x0, sp, 32
	ldar	x0, [x0]
	str	x0, [sp, 104]
	.loc 1 49 7
	ldr	x0, [sp, 104]
	.loc 1 49 33
	add	x0, x0, 8
	str	x0, [sp, 184]
	.loc 1 49 40
	mov	w0, 1
	str	w0, [sp, 100]
	.loc 1 49 7
	ldr	w0, [sp, 100]
	mov	w1, w0
	ldr	x0, [sp, 184]
	str	w1, [x0]
.LBE2:
.LBB3:
	.loc 1 50 5
	add	x0, sp, 32
	ldar	x0, [x0]
	str	x0, [sp, 112]
	.loc 1 50 7
	ldr	x0, [sp, 112]
	.loc 1 50 33
	str	x0, [sp, 176]
	.loc 1 50 40
	str	xzr, [sp, 88]
	.loc 1 50 76
	ldr	x0, [sp, 88]
	mov	x1, x0
	ldr	x0, [sp, 176]
	str	x1, [x0]
.LBE3:
.LBB4:
	.loc 1 58 40
	ldr	x0, [sp, 40]
	str	x0, [sp, 168]
	.loc 1 58 74
	add	x0, sp, 32
	ldar	x0, [x0]
	str	x0, [sp, 120]
	.loc 1 58 50
	ldr	x0, [sp, 120]
	str	x0, [sp, 80]
	.loc 1 58 73
	ldr	x0, [sp, 80]
	mov	x2, x0
	ldr	x0, [sp, 168]
.L7:
	ldaxr	x1, [x0]
	stlxr	w3, x2, [x0]
	cbnz	w3, .L7
	mov	x0, x1
	str	x0, [sp, 72]
	.loc 1 58 15
	ldr	x0, [sp, 72]
.LBE4:
	.loc 1 58 10
	str	x0, [sp, 160]
	.loc 1 59 8
	ldr	x0, [sp, 160]
	cmp	x0, 0
	beq	.L6
	.loc 1 72 5
	ldr	w1, [sp, 28]
	adrp	x0, .LC1
	add	x0, x0, :lo12:.LC1
	bl	printf
.LBB5:
	.loc 1 76 33
	ldr	x0, [sp, 160]
	str	x0, [sp, 152]
	.loc 1 76 61
	add	x0, sp, 32
	ldar	x0, [x0]
	str	x0, [sp, 128]
	.loc 1 76 40
	ldr	x0, [sp, 128]
	str	x0, [sp, 64]
	.loc 1 76 7
	ldr	x0, [sp, 64]
	mov	x1, x0
	ldr	x0, [sp, 152]
	str	x1, [x0]
.LBE5:
	.loc 1 84 4
	dmb	ish
	.loc 1 90 11
	b	.L4
.L5:
	.loc 1 91 9
	bl	sched_yield
.L4:
.LBB6:
	.loc 1 90 12
	add	x0, sp, 32
	ldar	x0, [x0]
	str	x0, [sp, 136]
	.loc 1 90 14
	ldr	x0, [sp, 136]
	.loc 1 90 40
	add	x0, x0, 8
	str	x0, [sp, 144]
	.loc 1 90 65
	ldr	x0, [sp, 144]
	ldar	w0, [x0]
	str	w0, [sp, 60]
	.loc 1 90 15
	ldr	w0, [sp, 60]
.LBE6:
	.loc 1 90 11
	cmp	w0, 0
	bne	.L5
	b	.L1
.L6:
	.loc 1 63 9
	nop
.L1:
	.loc 1 92 1
	ldp	x29, x30, [sp], 192
	.cfi_restore 30
	.cfi_restore 29
	.cfi_def_cfa_offset 0
	ret
	.cfi_endproc
.LFE0:
	.size	rte_mcslock_lock, .-rte_mcslock_lock
	.section	.rodata
	.align	3
.LC2:
	.string	"Thread %d: 3: R.next \n"
	.align	3
.LC3:
	.string	"Thread %d: 4: W.locked \n"
	.text
	.align	2
	.type	rte_mcslock_unlock, %function
rte_mcslock_unlock:
.LFB1:
	.loc 1 104 1
	.cfi_startproc
	stp	x29, x30, [sp, -176]!
	.cfi_def_cfa_offset 176
	.cfi_offset 29, -176
	.cfi_offset 30, -168
	mov	x29, sp
	str	x0, [sp, 40]
	str	x1, [sp, 32]
	str	w2, [sp, 28]
	.loc 1 105 5
	ldr	w1, [sp, 28]
	adrp	x0, .LC2
	add	x0, x0, :lo12:.LC2
	bl	printf
.LBB7:
	.loc 1 107 9
	add	x0, sp, 32
	ldar	x0, [x0]
	str	x0, [sp, 104]
	.loc 1 107 11
	ldr	x0, [sp, 104]
	.loc 1 107 37
	str	x0, [sp, 168]
	.loc 1 107 62
	ldr	x0, [sp, 168]
	ldr	x0, [x0]
	str	x0, [sp, 96]
	.loc 1 107 12
	ldr	x0, [sp, 96]
.LBE7:
	.loc 1 107 8
	cmp	x0, 0
	bne	.L9
.LBB8:
.LBB9:
	.loc 1 109 62
	add	x0, sp, 32
	str	x0, [sp, 160]
	.loc 1 109 87
	ldr	x0, [sp, 160]
	ldr	x0, [x0]
	str	x0, [sp, 80]
	.loc 1 109 37
	ldr	x0, [sp, 80]
.LBE9:
	.loc 1 109 24
	str	x0, [sp, 88]
.LBB10:
	.loc 1 112 41
	ldr	x0, [sp, 40]
	str	x0, [sp, 152]
	.loc 1 112 59
	str	xzr, [sp, 72]
	.loc 1 112 106
	ldr	x0, [sp, 72]
	mov	x4, x0
	ldr	x1, [sp, 152]
	add	x0, sp, 88
	ldr	x3, [x0]
.L16:
	ldxr	x2, [x1]
	cmp	x2, x3
	bne	.L17
	stlxr	w5, x4, [x1]
	cbnz	w5, .L16
.L17:
	cset	w1, eq
	cmp	w1, 0
	bne	.L10
	str	x2, [x0]
.L10:
	mov	w0, w1
.LBE10:
	.loc 1 112 12
	cmp	w0, 0
	bne	.L15
	.loc 1 119 8
	dmb	ishld
	.loc 1 124 15
	b	.L13
.L14:
	.loc 1 125 13
	bl	sched_yield
.L13:
.LBB11:
	.loc 1 124 16
	add	x0, sp, 32
	ldar	x0, [x0]
	str	x0, [sp, 112]
	.loc 1 124 18
	ldr	x0, [sp, 112]
	.loc 1 124 44
	str	x0, [sp, 144]
	.loc 1 124 69
	ldr	x0, [sp, 144]
	ldr	x0, [x0]
	str	x0, [sp, 64]
	.loc 1 124 19
	ldr	x0, [sp, 64]
.LBE11:
	.loc 1 124 15
	cmp	x0, 0
	beq	.L14
.L9:
.LBE8:
	.loc 1 127 5 discriminator 1
	ldr	w1, [sp, 28]
	adrp	x0, .LC3
	add	x0, x0, :lo12:.LC3
	bl	printf
.LBB12:
	.loc 1 129 5 discriminator 1
	add	x0, sp, 32
	ldar	x0, [x0]
	str	x0, [sp, 128]
	.loc 1 129 7 discriminator 1
	ldr	x0, [sp, 128]
	.loc 1 129 5 discriminator 1
	ldar	x0, [x0]
	str	x0, [sp, 120]
	.loc 1 129 13 discriminator 1
	ldr	x0, [sp, 120]
	.loc 1 129 33 discriminator 1
	add	x0, x0, 8
	str	x0, [sp, 136]
	.loc 1 129 40 discriminator 1
	str	wzr, [sp, 60]
	.loc 1 129 7 discriminator 1
	ldr	w0, [sp, 60]
	mov	w1, w0
	ldr	x0, [sp, 136]
	stlr	w1, [x0]
	b	.L8
.L15:
.LBE12:
.LBB13:
	.loc 1 113 13
	nop
.L8:
.LBE13:
	.loc 1 130 1
	ldp	x29, x30, [sp], 176
	.cfi_restore 30
	.cfi_restore 29
	.cfi_def_cfa_offset 0
	ret
	.cfi_endproc
.LFE1:
	.size	rte_mcslock_unlock, .-rte_mcslock_unlock
	.section	.rodata
	.align	3
.LC4:
	.string	"Thread %lu: Lock acquired.\n"
	.text
	.align	2
	.global	thread_lock
	.type	thread_lock, %function
thread_lock:
.LFB2:
	.loc 1 138 30
	.cfi_startproc
	stp	x29, x30, [sp, -48]!
	.cfi_def_cfa_offset 48
	.cfi_offset 29, -48
	.cfi_offset 30, -40
	mov	x29, sp
	str	x0, [sp, 24]
	.loc 1 139 20
	ldr	x0, [sp, 24]
	str	x0, [sp, 40]
	.loc 1 142 42
	bl	pthread_self
	.loc 1 142 5
	mov	w2, w0
	ldr	x1, [sp, 40]
	adrp	x0, global_lock
	add	x0, x0, :lo12:global_lock
	bl	rte_mcslock_lock
	.loc 1 143 5
	bl	pthread_self
	mov	x1, x0
	adrp	x0, .LC4
	add	x0, x0, :lo12:.LC4
	bl	printf
	.loc 1 144 11
	mov	x0, 0
	.loc 1 145 1
	ldp	x29, x30, [sp], 48
	.cfi_restore 30
	.cfi_restore 29
	.cfi_def_cfa_offset 0
	ret
	.cfi_endproc
.LFE2:
	.size	thread_lock, .-thread_lock
	.section	.rodata
	.align	3
.LC5:
	.string	"Thread %lu: Lock released.\n"
	.text
	.align	2
	.global	thread_unlock
	.type	thread_unlock, %function
thread_unlock:
.LFB3:
	.loc 1 148 32
	.cfi_startproc
	stp	x29, x30, [sp, -48]!
	.cfi_def_cfa_offset 48
	.cfi_offset 29, -48
	.cfi_offset 30, -40
	mov	x29, sp
	str	x0, [sp, 24]
	.loc 1 149 20
	ldr	x0, [sp, 24]
	str	x0, [sp, 40]
	.loc 1 151 44
	bl	pthread_self
	.loc 1 151 5
	mov	w2, w0
	ldr	x1, [sp, 40]
	adrp	x0, global_lock
	add	x0, x0, :lo12:global_lock
	bl	rte_mcslock_unlock
	.loc 1 152 5
	bl	pthread_self
	mov	x1, x0
	adrp	x0, .LC5
	add	x0, x0, :lo12:.LC5
	bl	printf
	.loc 1 153 11
	mov	x0, 0
	.loc 1 154 1
	ldp	x29, x30, [sp], 48
	.cfi_restore 30
	.cfi_restore 29
	.cfi_def_cfa_offset 0
	ret
	.cfi_endproc
.LFE3:
	.size	thread_unlock, .-thread_unlock
	.section	.rodata
	.align	3
.LC6:
	.string	"All threads have finished execution."
	.text
	.align	2
	.global	main
	.type	main, %function
main:
.LFB4:
	.loc 1 157 33
	.cfi_startproc
	stp	x29, x30, [sp, -96]!
	.cfi_def_cfa_offset 96
	.cfi_offset 29, -96
	.cfi_offset 30, -88
	mov	x29, sp
	str	w0, [sp, 28]
	str	x1, [sp, 16]
	.loc 1 161 25
	str	wzr, [sp, 68]
	ldr	w0, [sp, 68]
	mov	w1, w0
	adrp	x0, :got:global_node1
	ldr	x0, [x0, #:got_lo12:global_node1]
	add	x0, x0, 8
	stlr	w1, [x0]
	.loc 1 162 23
	str	xzr, [sp, 72]
	ldr	x0, [sp, 72]
	mov	x1, x0
	adrp	x0, :got:global_node1
	ldr	x0, [x0, #:got_lo12:global_node1]
	stlr	x1, [x0]
	.loc 1 163 25
	str	wzr, [sp, 84]
	ldr	w0, [sp, 84]
	mov	w1, w0
	adrp	x0, :got:global_node2
	ldr	x0, [x0, #:got_lo12:global_node2]
	add	x0, x0, 8
	stlr	w1, [x0]
	.loc 1 164 23
	str	xzr, [sp, 88]
	ldr	x0, [sp, 88]
	mov	x1, x0
	adrp	x0, :got:global_node2
	ldr	x0, [x0, #:got_lo12:global_node2]
	stlr	x1, [x0]
	.loc 1 167 5
	add	x4, sp, 56
	adrp	x0, :got:global_node1
	ldr	x3, [x0, #:got_lo12:global_node1]
	adrp	x0, thread_lock
	add	x2, x0, :lo12:thread_lock
	mov	x1, 0
	mov	x0, x4
	bl	pthread_create
	.loc 1 168 5
	add	x4, sp, 48
	adrp	x0, :got:global_node1
	ldr	x3, [x0, #:got_lo12:global_node1]
	adrp	x0, thread_unlock
	add	x2, x0, :lo12:thread_unlock
	mov	x1, 0
	mov	x0, x4
	bl	pthread_create
	.loc 1 169 5
	add	x4, sp, 40
	adrp	x0, :got:global_node2
	ldr	x3, [x0, #:got_lo12:global_node2]
	adrp	x0, thread_lock
	add	x2, x0, :lo12:thread_lock
	mov	x1, 0
	mov	x0, x4
	bl	pthread_create
	.loc 1 170 5
	add	x4, sp, 32
	adrp	x0, :got:global_node2
	ldr	x3, [x0, #:got_lo12:global_node2]
	adrp	x0, thread_unlock
	add	x2, x0, :lo12:thread_unlock
	mov	x1, 0
	mov	x0, x4
	bl	pthread_create
	.loc 1 173 5
	ldr	x0, [sp, 56]
	mov	x1, 0
	bl	pthread_join
	.loc 1 174 5
	ldr	x0, [sp, 48]
	mov	x1, 0
	bl	pthread_join
	.loc 1 175 5
	ldr	x0, [sp, 40]
	mov	x1, 0
	bl	pthread_join
	.loc 1 176 5
	ldr	x0, [sp, 32]
	mov	x1, 0
	bl	pthread_join
	.loc 1 178 5
	adrp	x0, .LC6
	add	x0, x0, :lo12:.LC6
	bl	puts
	.loc 1 180 12
	mov	w0, 0
	.loc 1 181 1
	ldp	x29, x30, [sp], 96
	.cfi_restore 30
	.cfi_restore 29
	.cfi_def_cfa_offset 0
	ret
	.cfi_endproc
.LFE4:
	.size	main, .-main
.Letext0:
	.file 2 "/usr/lib/gcc-cross/aarch64-linux-gnu/9/include/stddef.h"
	.file 3 "/usr/aarch64-linux-gnu/include/bits/types.h"
	.file 4 "/usr/aarch64-linux-gnu/include/time.h"
	.file 5 "/usr/aarch64-linux-gnu/include/bits/pthreadtypes.h"
	.file 6 "/usr/aarch64-linux-gnu/include/bits/types/struct_FILE.h"
	.file 7 "/usr/aarch64-linux-gnu/include/bits/types/FILE.h"
	.file 8 "/usr/aarch64-linux-gnu/include/stdio.h"
	.file 9 "/usr/aarch64-linux-gnu/include/unistd.h"
	.file 10 "/usr/lib/gcc-cross/aarch64-linux-gnu/9/include/stdatomic.h"
	.section	.note.GNU-stack,"",@progbits
